

Microchip MPLAB XC8 Assembler V2.32 build 20210201212658 
                                                                                               Sun Jun 27 19:57:13 2021

Microchip MPLAB XC8 C Compiler v2.32 (Free license) build 20210201212658 Og1 
     1                           	processor	16F887
     2                           	pagewidth 120
     3                           	opt	flic
     4                           	psect	strings,global,class=STRING,delta=2,noexec
     5                           	psect	cinit,global,class=CODE,merge=1,delta=2
     6                           	psect	bssBANK0,global,class=BANK0,space=1,delta=1,noexec
     7                           	psect	cstackBANK1,global,class=BANK1,space=1,delta=1,noexec
     8                           	psect	cstackCOMMON,global,class=COMMON,space=1,delta=1,noexec
     9                           	psect	cstackBANK0,global,class=BANK0,space=1,delta=1,noexec
    10                           	psect	maintext,global,class=CODE,split=1,delta=2
    11                           	psect	text1,local,class=CODE,merge=1,delta=2,group=2
    12                           	psect	text2,local,class=CODE,merge=1,delta=2,group=2
    13                           	psect	text3,local,class=CODE,merge=1,delta=2,group=2
    14                           	psect	text4,local,class=CODE,merge=1,delta=2,group=1
    15                           	psect	text5,local,class=CODE,merge=1,delta=2,group=1
    16                           	psect	text6,local,class=CODE,merge=1,delta=2,group=1
    17                           	psect	text7,local,class=CODE,merge=1,delta=2,group=1
    18                           	psect	text8,local,class=CODE,merge=1,delta=2,group=1
    19                           	psect	text9,local,class=CODE,merge=1,delta=2,group=1
    20                           	psect	text10,local,class=CODE,merge=1,delta=2,group=1
    21                           	psect	text11,local,class=CODE,merge=1,delta=2,group=1
    22                           	psect	text12,local,class=CODE,merge=1,delta=2,group=1
    23                           	psect	text13,local,class=CODE,merge=1,delta=2,group=1
    24                           	psect	text14,local,class=CODE,merge=1,delta=2,group=1
    25                           	psect	text15,local,class=CODE,merge=1,delta=2,group=1
    26                           	psect	config,global,abs,ovrld,class=CONFIG,space=4,delta=2,noexec
    27                           	dabs	1,0x7E,2
    28  0000                     
    29                           ; Version 2.20
    30                           ; Generated 12/02/2020 GMT
    31                           ; 
    32                           ; Copyright © 2020, Microchip Technology Inc. and its subsidiaries ("Microchip")
    33                           ; All rights reserved.
    34                           ; 
    35                           ; This software is developed by Microchip Technology Inc. and its subsidiaries ("Microch
      +                          ip").
    36                           ; 
    37                           ; Redistribution and use in source and binary forms, with or without modification, are
    38                           ; permitted provided that the following conditions are met:
    39                           ; 
    40                           ;     1. Redistributions of source code must retain the above copyright notice, this lis
      +                          t of
    41                           ;        conditions and the following disclaimer.
    42                           ; 
    43                           ;     2. Redistributions in binary form must reproduce the above copyright notice, this 
      +                          list
    44                           ;        of conditions and the following disclaimer in the documentation and/or other
    45                           ;        materials provided with the distribution.
    46                           ; 
    47                           ;     3. Microchip's name may not be used to endorse or promote products derived from th
      +                          is
    48                           ;        software without specific prior written permission.
    49                           ; 
    50                           ; THIS SOFTWARE IS PROVIDED BY MICROCHIP "AS IS" AND ANY EXPRESS OR IMPLIED WARRANTIES,
    51                           ; INCLUDING, BUT NOT LIMITED TO, THE IMPLIED WARRANTIES OF MERCHANTABILITY AND FITNESS F
      +                          OR
    52                           ; PURPOSE ARE DISCLAIMED.  IN NO EVENT SHALL MICROCHIP BE LIABLE FOR ANY DIRECT, INDIREC
      +                          T,
    53                           ; INCIDENTAL, SPECIAL, EXEMPLARY, OR CONSEQUENTIAL DAMAGES (INCLUDING BUT NOT LIMITED TO
    54                           ; PROCUREMENT OF SUBSTITUTE GOODS OR SERVICES; LOSS OF USE, DATA OR PROFITS; OR BUSINESS
    55                           ; INTERRUPTION) HOWSOEVER CAUSED AND ON ANY THEORY OF LIABILITY, WHETHER IN CONTRACT, ST
      +                          RICT
    56                           ; LIABILITY, OR TORT (INCLUDING NEGLIGENCE OR OTHERWISE) ARISING IN ANY WAY OUT OF THE U
      +                          SE OF
    57                           ; THIS SOFTWARE, EVEN IF ADVISED OF THE POSSIBILITY OF SUCH DAMAGE.
    58                           ; 
    59                           ; 
    60                           ; Code-generator required, PIC16F887 Definitions
    61                           ; 
    62                           ; SFR Addresses
    63  0000                     	;# 
    64  0001                     	;# 
    65  0002                     	;# 
    66  0003                     	;# 
    67  0004                     	;# 
    68  0005                     	;# 
    69  0006                     	;# 
    70  0007                     	;# 
    71  0008                     	;# 
    72  0009                     	;# 
    73  000A                     	;# 
    74  000B                     	;# 
    75  000C                     	;# 
    76  000D                     	;# 
    77  000E                     	;# 
    78  000E                     	;# 
    79  000F                     	;# 
    80  0010                     	;# 
    81  0011                     	;# 
    82  0012                     	;# 
    83  0013                     	;# 
    84  0014                     	;# 
    85  0015                     	;# 
    86  0015                     	;# 
    87  0016                     	;# 
    88  0017                     	;# 
    89  0018                     	;# 
    90  0019                     	;# 
    91  001A                     	;# 
    92  001B                     	;# 
    93  001B                     	;# 
    94  001C                     	;# 
    95  001D                     	;# 
    96  001E                     	;# 
    97  001F                     	;# 
    98  0081                     	;# 
    99  0085                     	;# 
   100  0086                     	;# 
   101  0087                     	;# 
   102  0088                     	;# 
   103  0089                     	;# 
   104  008C                     	;# 
   105  008D                     	;# 
   106  008E                     	;# 
   107  008F                     	;# 
   108  0090                     	;# 
   109  0091                     	;# 
   110  0092                     	;# 
   111  0093                     	;# 
   112  0093                     	;# 
   113  0093                     	;# 
   114  0094                     	;# 
   115  0095                     	;# 
   116  0096                     	;# 
   117  0097                     	;# 
   118  0098                     	;# 
   119  0099                     	;# 
   120  009A                     	;# 
   121  009B                     	;# 
   122  009C                     	;# 
   123  009D                     	;# 
   124  009E                     	;# 
   125  009F                     	;# 
   126  0105                     	;# 
   127  0107                     	;# 
   128  0108                     	;# 
   129  0109                     	;# 
   130  010C                     	;# 
   131  010C                     	;# 
   132  010D                     	;# 
   133  010E                     	;# 
   134  010F                     	;# 
   135  0185                     	;# 
   136  0187                     	;# 
   137  0188                     	;# 
   138  0189                     	;# 
   139  018C                     	;# 
   140  018D                     	;# 
   141  0000                     	;# 
   142  0001                     	;# 
   143  0002                     	;# 
   144  0003                     	;# 
   145  0004                     	;# 
   146  0005                     	;# 
   147  0006                     	;# 
   148  0007                     	;# 
   149  0008                     	;# 
   150  0009                     	;# 
   151  000A                     	;# 
   152  000B                     	;# 
   153  000C                     	;# 
   154  000D                     	;# 
   155  000E                     	;# 
   156  000E                     	;# 
   157  000F                     	;# 
   158  0010                     	;# 
   159  0011                     	;# 
   160  0012                     	;# 
   161  0013                     	;# 
   162  0014                     	;# 
   163  0015                     	;# 
   164  0015                     	;# 
   165  0016                     	;# 
   166  0017                     	;# 
   167  0018                     	;# 
   168  0019                     	;# 
   169  001A                     	;# 
   170  001B                     	;# 
   171  001B                     	;# 
   172  001C                     	;# 
   173  001D                     	;# 
   174  001E                     	;# 
   175  001F                     	;# 
   176  0081                     	;# 
   177  0085                     	;# 
   178  0086                     	;# 
   179  0087                     	;# 
   180  0088                     	;# 
   181  0089                     	;# 
   182  008C                     	;# 
   183  008D                     	;# 
   184  008E                     	;# 
   185  008F                     	;# 
   186  0090                     	;# 
   187  0091                     	;# 
   188  0092                     	;# 
   189  0093                     	;# 
   190  0093                     	;# 
   191  0093                     	;# 
   192  0094                     	;# 
   193  0095                     	;# 
   194  0096                     	;# 
   195  0097                     	;# 
   196  0098                     	;# 
   197  0099                     	;# 
   198  009A                     	;# 
   199  009B                     	;# 
   200  009C                     	;# 
   201  009D                     	;# 
   202  009E                     	;# 
   203  009F                     	;# 
   204  0105                     	;# 
   205  0107                     	;# 
   206  0108                     	;# 
   207  0109                     	;# 
   208  010C                     	;# 
   209  010C                     	;# 
   210  010D                     	;# 
   211  010E                     	;# 
   212  010F                     	;# 
   213  0185                     	;# 
   214  0187                     	;# 
   215  0188                     	;# 
   216  0189                     	;# 
   217  018C                     	;# 
   218  018D                     	;# 
   219                           
   220                           	psect	strings
   221  0003                     __pstrings:
   222  0003                     stringtab:
   223  0003                     __stringtab:
   224  0003                     stringcode:	
   225                           ;	String table - string pointers are 1 byte each
   226                           
   227  0003                     stringdir:
   228  0003  3000               	movlw	high stringdir
   229  0004  008A               	movwf	10
   230  0005  0804               	movf	4,w
   231  0006  0A84               	incf	4,f
   232  0007  0782               	addwf	2,f
   233  0008                     __stringbase:
   234  0008  3400               	retlw	0
   235  0009                     __end_of__stringtab:
   236  0009                     main@led:
   237  0009  34C0               	retlw	192
   238  000A  3400               	retlw	0
   239  000B  34F9               	retlw	249
   240  000C  3400               	retlw	0
   241  000D  34A4               	retlw	164
   242  000E  3400               	retlw	0
   243  000F  34B0               	retlw	176
   244  0010  3400               	retlw	0
   245  0011  3499               	retlw	153
   246  0012  3400               	retlw	0
   247  0013  3492               	retlw	146
   248  0014  3400               	retlw	0
   249  0015  3482               	retlw	130
   250  0016  3400               	retlw	0
   251  0017  34F8               	retlw	248
   252  0018  3400               	retlw	0
   253  0019  3480               	retlw	128
   254  001A  3400               	retlw	0
   255  001B  3490               	retlw	144
   256  001C  3400               	retlw	0
   257  001D                     __end_ofmain@led:
   258  001E                     _ADRESH	set	30
   259  001F                     _ADCON0	set	31
   260  0008                     _PORTD	set	8
   261  0007                     _PORTC	set	7
   262  0006                     _PORTB	set	6
   263  00F9                     _GO	set	249
   264  009E                     _ADRESL	set	158
   265  009F                     _ADCON1	set	159
   266  0088                     _TRISD	set	136
   267  0087                     _TRISC	set	135
   268  0086                     _TRISB	set	134
   269  04FF                     _ADFM	set	1279
   270  0428                     _TRISA0	set	1064
   271  0189                     _ANSELH	set	393
   272  0188                     _ANSEL	set	392
   273                           
   274                           	psect	cinit
   275  07F8                     start_initialization:	
   276                           ; #config settings
   277                           
   278  07F8                     __initialization:
   279                           
   280                           ; Clear objects allocated to BANK0
   281  07F8  1283               	bcf	3,5	;RP0=0, select bank0
   282  07F9  1303               	bcf	3,6	;RP1=0, select bank0
   283  07FA  01EE               	clrf	__pbssBANK0& (0+127)
   284  07FB  01EF               	clrf	(__pbssBANK0+1)& (0+127)
   285  07FC                     end_of_initialization:	
   286                           ;End of C runtime variable initialization code
   287                           
   288  07FC                     __end_of__initialization:
   289  07FC  0183               	clrf	3
   290  07FD  120A  158A  2D95   	ljmp	_main	;jump to C main() function
   291                           
   292                           	psect	bssBANK0
   293  006E                     __pbssBANK0:
   294  006E                     _errno:
   295  006E                     	ds	2
   296                           
   297                           	psect	cstackBANK1
   298  00A0                     __pcstackBANK1:
   299  00A0                     ?___fldiv:
   300  00A0                     ___fldiv@a:	
   301                           ; 4 bytes @ 0x0
   302                           
   303                           
   304                           ; 4 bytes @ 0x0
   305  00A0                     	ds	4
   306  00A4                     ___fldiv@b:
   307                           
   308                           ; 4 bytes @ 0x4
   309  00A4                     	ds	4
   310  00A8                     ___fldiv@rem:
   311                           
   312                           ; 4 bytes @ 0x8
   313  00A8                     	ds	4
   314  00AC                     ___fldiv@sign:
   315                           
   316                           ; 1 bytes @ 0xC
   317  00AC                     	ds	1
   318  00AD                     ___fldiv@new_exp:
   319                           
   320                           ; 2 bytes @ 0xD
   321  00AD                     	ds	2
   322  00AF                     ___fldiv@grs:
   323                           
   324                           ; 4 bytes @ 0xF
   325  00AF                     	ds	4
   326  00B3                     ___fldiv@bexp:
   327                           
   328                           ; 1 bytes @ 0x13
   329  00B3                     	ds	1
   330  00B4                     ___fldiv@aexp:
   331                           
   332                           ; 1 bytes @ 0x14
   333  00B4                     	ds	1
   334  00B5                     ??_main:
   335                           
   336                           ; 1 bytes @ 0x15
   337  00B5                     	ds	4
   338  00B9                     main@storage:
   339                           
   340                           ; 2 bytes @ 0x19
   341  00B9                     	ds	2
   342  00BB                     main@TR:
   343                           
   344                           ; 2 bytes @ 0x1B
   345  00BB                     	ds	2
   346  00BD                     main@CH:
   347                           
   348                           ; 2 bytes @ 0x1D
   349  00BD                     	ds	2
   350  00BF                     main@DV:
   351                           
   352                           ; 2 bytes @ 0x1F
   353  00BF                     	ds	2
   354  00C1                     main@Vout:
   355                           
   356                           ; 4 bytes @ 0x21
   357  00C1                     	ds	4
   358  00C5                     main@Re_Vout:
   359                           
   360                           ; 4 bytes @ 0x25
   361  00C5                     	ds	4
   362  00C9                     _main$709:
   363                           
   364                           ; 2 bytes @ 0x29
   365  00C9                     	ds	2
   366  00CB                     main@temp:
   367                           
   368                           ; 2 bytes @ 0x2B
   369  00CB                     	ds	2
   370                           
   371                           	psect	cstackCOMMON
   372  0070                     __pcstackCOMMON:
   373  0070                     ?___fleq:
   374  0070                     ?___flge:	
   375                           ; 1 bit 
   376                           
   377  0070                     ?_main:	
   378                           ; 1 bit 
   379                           
   380  0070                     ?__Umul8_16:	
   381                           ; 1 bytes @ 0x0
   382                           
   383  0070                     ?___wmul:	
   384                           ; 2 bytes @ 0x0
   385                           
   386  0070                     ?___lwmod:	
   387                           ; 2 bytes @ 0x0
   388                           
   389  0070                     ?___fladd:	
   390                           ; 2 bytes @ 0x0
   391                           
   392  0070                     __Umul8_16@multiplicand:	
   393                           ; 4 bytes @ 0x0
   394                           
   395  0070                     ___wmul@multiplier:	
   396                           ; 1 bytes @ 0x0
   397                           
   398  0070                     ___lwmod@divisor:	
   399                           ; 2 bytes @ 0x0
   400                           
   401  0070                     ___fleq@ff1:	
   402                           ; 2 bytes @ 0x0
   403                           
   404  0070                     ___flge@ff1:	
   405                           ; 4 bytes @ 0x0
   406                           
   407  0070                     ___fladd@b:	
   408                           ; 4 bytes @ 0x0
   409                           
   410                           
   411                           ; 4 bytes @ 0x0
   412  0070                     	ds	2
   413  0072                     ??__Umul8_16:
   414  0072                     ___wmul@multiplicand:	
   415                           ; 1 bytes @ 0x2
   416                           
   417  0072                     ___lwmod@dividend:	
   418                           ; 2 bytes @ 0x2
   419                           
   420                           
   421                           ; 2 bytes @ 0x2
   422  0072                     	ds	2
   423  0074                     ??___wmul:
   424  0074                     ??___lwmod:	
   425                           ; 1 bytes @ 0x4
   426                           
   427  0074                     ___wmul@product:	
   428                           ; 1 bytes @ 0x4
   429                           
   430  0074                     __Umul8_16@product:	
   431                           ; 2 bytes @ 0x4
   432                           
   433  0074                     ___fleq@ff2:	
   434                           ; 2 bytes @ 0x4
   435                           
   436  0074                     ___flge@ff2:	
   437                           ; 4 bytes @ 0x4
   438                           
   439  0074                     ___fladd@a:	
   440                           ; 4 bytes @ 0x4
   441                           
   442                           
   443                           ; 4 bytes @ 0x4
   444  0074                     	ds	1
   445  0075                     ___lwmod@counter:
   446                           
   447                           ; 1 bytes @ 0x5
   448  0075                     	ds	1
   449  0076                     ?___lwdiv:
   450  0076                     ___lwdiv@divisor:	
   451                           ; 2 bytes @ 0x6
   452                           
   453  0076                     __Umul8_16@word_mpld:	
   454                           ; 2 bytes @ 0x6
   455                           
   456                           
   457                           ; 2 bytes @ 0x6
   458  0076                     	ds	2
   459  0078                     ??___fleq:
   460  0078                     ??___flge:	
   461                           ; 1 bytes @ 0x8
   462                           
   463  0078                     ___fladd@signs:	
   464                           ; 1 bytes @ 0x8
   465                           
   466  0078                     __Umul8_16@multiplier:	
   467                           ; 1 bytes @ 0x8
   468                           
   469  0078                     ___lwdiv@dividend:	
   470                           ; 1 bytes @ 0x8
   471                           
   472                           
   473                           ; 2 bytes @ 0x8
   474  0078                     	ds	1
   475  0079                     ??___flmul:
   476  0079                     ___fladd@aexp:	
   477                           ; 1 bytes @ 0x9
   478                           
   479                           
   480                           ; 1 bytes @ 0x9
   481  0079                     	ds	1
   482  007A                     ??___lwdiv:
   483  007A                     ___fladd@bexp:	
   484                           ; 1 bytes @ 0xA
   485                           
   486                           
   487                           ; 1 bytes @ 0xA
   488  007A                     	ds	1
   489  007B                     ___fladd@grs:
   490  007B                     ___lwdiv@quotient:	
   491                           ; 1 bytes @ 0xB
   492                           
   493                           
   494                           ; 2 bytes @ 0xB
   495  007B                     	ds	1
   496  007C                     ??_frexp:
   497                           
   498                           ; 1 bytes @ 0xC
   499  007C                     	ds	1
   500  007D                     ___lwdiv@counter:
   501                           
   502                           ; 1 bytes @ 0xD
   503  007D                     	ds	1
   504  007E                     ??_round:
   505  007E                     ??___flsub:	
   506                           ; 1 bytes @ 0xE
   507                           
   508                           
   509                           	psect	cstackBANK0
   510  0020                     __pcstackBANK0:	
   511                           ; 1 bytes @ 0xE
   512                           
   513  0020                     ??___fladd:
   514  0020                     ?_frexp:	
   515                           ; 1 bytes @ 0x0
   516                           
   517  0020                     ?___flmul:	
   518                           ; 4 bytes @ 0x0
   519                           
   520  0020                     ___flmul@b:	
   521                           ; 4 bytes @ 0x0
   522                           
   523  0020                     frexp@value:	
   524                           ; 4 bytes @ 0x0
   525                           
   526                           
   527                           ; 4 bytes @ 0x0
   528  0020                     	ds	4
   529  0024                     frexp@eptr:
   530  0024                     ___flmul@a:	
   531                           ; 1 bytes @ 0x4
   532                           
   533                           
   534                           ; 4 bytes @ 0x4
   535  0024                     	ds	4
   536  0028                     ___flmul@sign:
   537                           
   538                           ; 1 bytes @ 0x8
   539  0028                     	ds	1
   540  0029                     ___flmul@grs:
   541                           
   542                           ; 4 bytes @ 0x9
   543  0029                     	ds	4
   544  002D                     ___flmul@aexp:
   545                           
   546                           ; 1 bytes @ 0xD
   547  002D                     	ds	1
   548  002E                     ___flmul@bexp:
   549                           
   550                           ; 1 bytes @ 0xE
   551  002E                     	ds	1
   552  002F                     ___flmul@prod:
   553                           
   554                           ; 4 bytes @ 0xF
   555  002F                     	ds	4
   556  0033                     ___flmul@temp:
   557                           
   558                           ; 2 bytes @ 0x13
   559  0033                     	ds	2
   560  0035                     ?___fltol:
   561  0035                     ___fltol@f1:	
   562                           ; 4 bytes @ 0x15
   563                           
   564                           
   565                           ; 4 bytes @ 0x15
   566  0035                     	ds	4
   567  0039                     ??___fltol:
   568                           
   569                           ; 1 bytes @ 0x19
   570  0039                     	ds	5
   571  003E                     ___fltol@sign1:
   572                           
   573                           ; 1 bytes @ 0x1E
   574  003E                     	ds	1
   575  003F                     ___fltol@exp1:
   576                           
   577                           ; 1 bytes @ 0x1F
   578  003F                     	ds	1
   579  0040                     ?___xxtofl:
   580  0040                     ___xxtofl@val:	
   581                           ; 4 bytes @ 0x20
   582                           
   583                           
   584                           ; 4 bytes @ 0x20
   585  0040                     	ds	4
   586  0044                     ??___xxtofl:
   587                           
   588                           ; 1 bytes @ 0x24
   589  0044                     	ds	4
   590  0048                     ___xxtofl@sign:
   591                           
   592                           ; 1 bytes @ 0x28
   593  0048                     	ds	1
   594  0049                     ___xxtofl@exp:
   595                           
   596                           ; 1 bytes @ 0x29
   597  0049                     	ds	1
   598  004A                     ___xxtofl@arg:
   599                           
   600                           ; 4 bytes @ 0x2A
   601  004A                     	ds	4
   602  004E                     ?_trunc:
   603  004E                     trunc@x:	
   604                           ; 4 bytes @ 0x2E
   605                           
   606                           
   607                           ; 4 bytes @ 0x2E
   608  004E                     	ds	4
   609  0052                     ??_trunc:
   610                           
   611                           ; 1 bytes @ 0x32
   612  0052                     	ds	1
   613  0053                     trunc@i:
   614                           
   615                           ; 4 bytes @ 0x33
   616  0053                     	ds	4
   617  0057                     trunc@expon:
   618                           
   619                           ; 2 bytes @ 0x37
   620  0057                     	ds	2
   621  0059                     ?___flsub:
   622  0059                     ___flsub@a:	
   623                           ; 4 bytes @ 0x39
   624                           
   625                           
   626                           ; 4 bytes @ 0x39
   627  0059                     	ds	4
   628  005D                     ___flsub@b:
   629                           
   630                           ; 4 bytes @ 0x3D
   631  005D                     	ds	4
   632  0061                     ?_round:
   633  0061                     round@x:	
   634                           ; 4 bytes @ 0x41
   635                           
   636                           
   637                           ; 4 bytes @ 0x41
   638  0061                     	ds	4
   639  0065                     round@f:
   640                           
   641                           ; 4 bytes @ 0x45
   642  0065                     	ds	4
   643  0069                     ??___fldiv:
   644                           
   645                           ; 1 bytes @ 0x49
   646  0069                     	ds	5
   647                           
   648                           	psect	maintext
   649  0D95                     __pmaintext:	
   650 ;;
   651 ;;Main: autosize = 0, tempsize = 4, incstack = 0, save=0
   652 ;;
   653 ;; *************** function _main *****************
   654 ;; Defined at:
   655 ;;		line 19 in file "BAI_5_HIEN.c"
   656 ;; Parameters:    Size  Location     Type
   657 ;;		None
   658 ;; Auto vars:     Size  Location     Type
   659 ;;  Re_Vout         4   37[BANK1 ] float 
   660 ;;  Vout            4   33[BANK1 ] float 
   661 ;;  temp            2   43[BANK1 ] unsigned int 
   662 ;;  DV              2   31[BANK1 ] unsigned int 
   663 ;;  CH              2   29[BANK1 ] unsigned int 
   664 ;;  TR              2   27[BANK1 ] unsigned int 
   665 ;;  storage         2   25[BANK1 ] unsigned int 
   666 ;; Return value:  Size  Location     Type
   667 ;;                  1    wreg      void 
   668 ;; Registers used:
   669 ;;		wreg, fsr0l, fsr0h, status,2, status,0, btemp+1, pclath, cstack
   670 ;; Tracked objects:
   671 ;;		On entry : B00/0
   672 ;;		On exit  : 0/0
   673 ;;		Unchanged: 0/0
   674 ;; Data sizes:     COMMON   BANK0   BANK1   BANK3   BANK2
   675 ;;      Params:         0       0       0       0       0
   676 ;;      Locals:         0       0      20       0       0
   677 ;;      Temps:          0       0       4       0       0
   678 ;;      Totals:         0       0      24       0       0
   679 ;;Total ram usage:       24 bytes
   680 ;; Hardware stack levels required when called: 4
   681 ;; This function calls:
   682 ;;		___fldiv
   683 ;;		___flge
   684 ;;		___flmul
   685 ;;		___fltol
   686 ;;		___lwdiv
   687 ;;		___lwmod
   688 ;;		___wmul
   689 ;;		___xxtofl
   690 ;;		_round
   691 ;; This function is called by:
   692 ;;		Startup code after reset
   693 ;; This function uses a non-reentrant model
   694 ;;
   695                           
   696                           
   697                           ;psect for function _main
   698  0D95                     _main:
   699  0D95                     l2187:	
   700                           ;incstack = 0
   701                           ; Regs used in _main: [wreg-fsr0h+status,2+status,0+btemp+1+pclath+cstack]
   702                           
   703                           
   704                           ;BAI_5_HIEN.c: 20:     ANSEL = 0x01;
   705  0D95  3001               	movlw	1
   706  0D96  1683               	bsf	3,5	;RP0=1, select bank3
   707  0D97  1703               	bsf	3,6	;RP1=1, select bank3
   708  0D98  0088               	movwf	8	;volatile
   709  0D99                     l2189:
   710                           
   711                           ;BAI_5_HIEN.c: 21:     ANSELH = 0;
   712  0D99  0189               	clrf	9	;volatile
   713  0D9A                     l2191:
   714                           
   715                           ;BAI_5_HIEN.c: 22:     TRISA0 = 1;
   716  0D9A  1683               	bsf	3,5	;RP0=1, select bank1
   717  0D9B  1303               	bcf	3,6	;RP1=0, select bank1
   718  0D9C  1405               	bsf	5,0	;volatile
   719  0D9D                     l2193:
   720                           
   721                           ;BAI_5_HIEN.c: 23:     TRISB = TRISC = TRISD = 0;
   722  0D9D  0188               	clrf	8	;volatile
   723  0D9E  0187               	clrf	7	;volatile
   724  0D9F  0186               	clrf	6	;volatile
   725  0DA0                     l2195:
   726                           
   727                           ;BAI_5_HIEN.c: 24:     PORTB = 0;
   728  0DA0  1283               	bcf	3,5	;RP0=0, select bank0
   729  0DA1  1303               	bcf	3,6	;RP1=0, select bank0
   730  0DA2  0186               	clrf	6	;volatile
   731  0DA3                     l2197:
   732                           
   733                           ;BAI_5_HIEN.c: 25:     PORTC = 0;
   734  0DA3  0187               	clrf	7	;volatile
   735  0DA4                     l2199:
   736                           
   737                           ;BAI_5_HIEN.c: 26:     PORTD = 0;
   738  0DA4  0188               	clrf	8	;volatile
   739  0DA5                     l2201:
   740                           
   741                           ;BAI_5_HIEN.c: 27:     ADCON1 = 0x80;
   742  0DA5  3080               	movlw	128
   743  0DA6  1683               	bsf	3,5	;RP0=1, select bank1
   744  0DA7  1303               	bcf	3,6	;RP1=0, select bank1
   745  0DA8  009F               	movwf	31	;volatile
   746  0DA9                     l2203:
   747                           
   748                           ;BAI_5_HIEN.c: 28:     ADCON0 = 0x81;
   749  0DA9  3081               	movlw	129
   750  0DAA  1283               	bcf	3,5	;RP0=0, select bank0
   751  0DAB  1303               	bcf	3,6	;RP1=0, select bank0
   752  0DAC  009F               	movwf	31	;volatile
   753  0DAD                     l2205:
   754                           
   755                           ;BAI_5_HIEN.c: 29:     ADFM = 1;
   756  0DAD  1683               	bsf	3,5	;RP0=1, select bank1
   757  0DAE  1303               	bcf	3,6	;RP1=0, select bank1
   758  0DAF  179F               	bsf	31,7	;volatile
   759  0DB0                     l2207:
   760  0DB0                     l2209:
   761                           
   762                           ;BAI_5_HIEN.c: 35:         _delay((unsigned long)((6)*(4000000/4000000.0)));
   763  0DB0  2DB1               	nop2	;2 cycle nop
   764  0DB1  2DB2               	nop2	;2 cycle nop
   765  0DB2  2DB3               	nop2	;2 cycle nop
   766  0DB3                     l2211:
   767                           
   768                           ;BAI_5_HIEN.c: 36:         GO = 1;
   769  0DB3  1283               	bcf	3,5	;RP0=0, select bank0
   770  0DB4  1303               	bcf	3,6	;RP1=0, select bank0
   771  0DB5  149F               	bsf	31,1	;volatile
   772  0DB6                     l42:	
   773                           ;BAI_5_HIEN.c: 37:         while(GO);
   774                           
   775  0DB6  189F               	btfsc	31,1	;volatile
   776  0DB7  2DB9               	goto	u3411
   777  0DB8  2DBA               	goto	u3410
   778  0DB9                     u3411:
   779  0DB9  2DB6               	goto	l42
   780  0DBA                     u3410:
   781  0DBA                     l2213:
   782                           
   783                           ;BAI_5_HIEN.c: 38:         storage = (ADRESH << 8) | ADRESL;
   784  0DBA  081E               	movf	30,w	;volatile
   785  0DBB  1683               	bsf	3,5	;RP0=1, select bank1
   786  0DBC  1303               	bcf	3,6	;RP1=0, select bank1
   787  0DBD  00BA               	movwf	(main@storage+1)^(0+128)
   788  0DBE  081E               	movf	30,w	;volatile
   789  0DBF  00B9               	movwf	main@storage^(0+128)
   790  0DC0                     l2215:
   791                           
   792                           ;BAI_5_HIEN.c: 39:         Vout = (float)(storage * 5) / 1023;
   793  0DC0  3044               	movlw	68
   794  0DC1  00A3               	movwf	(___fldiv@a+3)^(0+128)
   795  0DC2  307F               	movlw	127
   796  0DC3  00A2               	movwf	(___fldiv@a+2)^(0+128)
   797  0DC4  30C0               	movlw	192
   798  0DC5  00A1               	movwf	(___fldiv@a+1)^(0+128)
   799  0DC6  3000               	movlw	0
   800  0DC7  00A0               	movwf	___fldiv@a^(0+128)
   801  0DC8  3005               	movlw	5
   802  0DC9  00F2               	movwf	___wmul@multiplicand
   803  0DCA  3000               	movlw	0
   804  0DCB  00F3               	movwf	___wmul@multiplicand+1
   805  0DCC  083A               	movf	(main@storage+1)^(0+128),w
   806  0DCD  00F1               	movwf	___wmul@multiplier+1
   807  0DCE  0839               	movf	main@storage^(0+128),w
   808  0DCF  00F0               	movwf	___wmul@multiplier
   809  0DD0  120A  158A  2103  120A  158A  	fcall	___wmul
   810  0DD5  0870               	movf	?___wmul,w
   811  0DD6  1683               	bsf	3,5	;RP0=1, select bank1
   812  0DD7  1303               	bcf	3,6	;RP1=0, select bank1
   813  0DD8  00B5               	movwf	??_main^(0+128)
   814  0DD9  0871               	movf	?___wmul+1,w
   815  0DDA  00B6               	movwf	(??_main^(0+128)+1)
   816  0DDB  01B7               	clrf	(??_main^(0+128)+2)
   817  0DDC  01B8               	clrf	(??_main^(0+128)+3)
   818  0DDD  0838               	movf	(??_main+3)^(0+128),w
   819  0DDE  1283               	bcf	3,5	;RP0=0, select bank0
   820  0DDF  1303               	bcf	3,6	;RP1=0, select bank0
   821  0DE0  00C3               	movwf	___xxtofl@val+3
   822  0DE1  1683               	bsf	3,5	;RP0=1, select bank1
   823  0DE2  1303               	bcf	3,6	;RP1=0, select bank1
   824  0DE3  0837               	movf	(??_main+2)^(0+128),w
   825  0DE4  1283               	bcf	3,5	;RP0=0, select bank0
   826  0DE5  1303               	bcf	3,6	;RP1=0, select bank0
   827  0DE6  00C2               	movwf	___xxtofl@val+2
   828  0DE7  1683               	bsf	3,5	;RP0=1, select bank1
   829  0DE8  1303               	bcf	3,6	;RP1=0, select bank1
   830  0DE9  0836               	movf	(??_main+1)^(0+128),w
   831  0DEA  1283               	bcf	3,5	;RP0=0, select bank0
   832  0DEB  1303               	bcf	3,6	;RP1=0, select bank0
   833  0DEC  00C1               	movwf	___xxtofl@val+1
   834  0DED  1683               	bsf	3,5	;RP0=1, select bank1
   835  0DEE  1303               	bcf	3,6	;RP1=0, select bank1
   836  0DEF  0835               	movf	??_main^(0+128),w
   837  0DF0  1283               	bcf	3,5	;RP0=0, select bank0
   838  0DF1  1303               	bcf	3,6	;RP1=0, select bank0
   839  0DF2  00C0               	movwf	___xxtofl@val
   840  0DF3  3000               	movlw	0
   841  0DF4  120A  118A  2143  120A  158A  	fcall	___xxtofl
   842  0DF9  1283               	bcf	3,5	;RP0=0, select bank0
   843  0DFA  1303               	bcf	3,6	;RP1=0, select bank0
   844  0DFB  0843               	movf	?___xxtofl+3,w
   845  0DFC  1683               	bsf	3,5	;RP0=1, select bank1
   846  0DFD  1303               	bcf	3,6	;RP1=0, select bank1
   847  0DFE  00A7               	movwf	(___fldiv@b+3)^(0+128)
   848  0DFF  1283               	bcf	3,5	;RP0=0, select bank0
   849  0E00  1303               	bcf	3,6	;RP1=0, select bank0
   850  0E01  0842               	movf	?___xxtofl+2,w
   851  0E02  1683               	bsf	3,5	;RP0=1, select bank1
   852  0E03  1303               	bcf	3,6	;RP1=0, select bank1
   853  0E04  00A6               	movwf	(___fldiv@b+2)^(0+128)
   854  0E05  1283               	bcf	3,5	;RP0=0, select bank0
   855  0E06  1303               	bcf	3,6	;RP1=0, select bank0
   856  0E07  0841               	movf	?___xxtofl+1,w
   857  0E08  1683               	bsf	3,5	;RP0=1, select bank1
   858  0E09  1303               	bcf	3,6	;RP1=0, select bank1
   859  0E0A  00A5               	movwf	(___fldiv@b+1)^(0+128)
   860  0E0B  1283               	bcf	3,5	;RP0=0, select bank0
   861  0E0C  1303               	bcf	3,6	;RP1=0, select bank0
   862  0E0D  0840               	movf	?___xxtofl,w
   863  0E0E  1683               	bsf	3,5	;RP0=1, select bank1
   864  0E0F  1303               	bcf	3,6	;RP1=0, select bank1
   865  0E10  00A4               	movwf	___fldiv@b^(0+128)
   866  0E11  120A  158A  2332  120A  158A  	fcall	___fldiv
   867  0E16  1683               	bsf	3,5	;RP0=1, select bank1
   868  0E17  1303               	bcf	3,6	;RP1=0, select bank1
   869  0E18  0823               	movf	(?___fldiv+3)^(0+128),w
   870  0E19  00C4               	movwf	(main@Vout+3)^(0+128)
   871  0E1A  0822               	movf	(?___fldiv+2)^(0+128),w
   872  0E1B  00C3               	movwf	(main@Vout+2)^(0+128)
   873  0E1C  0821               	movf	(?___fldiv+1)^(0+128),w
   874  0E1D  00C2               	movwf	(main@Vout+1)^(0+128)
   875  0E1E  0820               	movf	?___fldiv^(0+128),w
   876  0E1F  00C1               	movwf	main@Vout^(0+128)
   877  0E20                     l2217:
   878                           
   879                           ;BAI_5_HIEN.c: 40:         Re_Vout = round(Vout * 100) / 100;
   880  0E20  3042               	movlw	66
   881  0E21  00A3               	movwf	(___fldiv@a+3)^(0+128)
   882  0E22  30C8               	movlw	200
   883  0E23  00A2               	movwf	(___fldiv@a+2)^(0+128)
   884  0E24  3000               	movlw	0
   885  0E25  00A1               	movwf	(___fldiv@a+1)^(0+128)
   886  0E26  3000               	movlw	0
   887  0E27  00A0               	movwf	___fldiv@a^(0+128)
   888  0E28  3042               	movlw	66
   889  0E29  1283               	bcf	3,5	;RP0=0, select bank0
   890  0E2A  1303               	bcf	3,6	;RP1=0, select bank0
   891  0E2B  00A3               	movwf	___flmul@b+3
   892  0E2C  30C8               	movlw	200
   893  0E2D  00A2               	movwf	___flmul@b+2
   894  0E2E  3000               	movlw	0
   895  0E2F  00A1               	movwf	___flmul@b+1
   896  0E30  3000               	movlw	0
   897  0E31  00A0               	movwf	___flmul@b
   898  0E32  1683               	bsf	3,5	;RP0=1, select bank1
   899  0E33  1303               	bcf	3,6	;RP1=0, select bank1
   900  0E34  0844               	movf	(main@Vout+3)^(0+128),w
   901  0E35  1283               	bcf	3,5	;RP0=0, select bank0
   902  0E36  1303               	bcf	3,6	;RP1=0, select bank0
   903  0E37  00A7               	movwf	___flmul@a+3
   904  0E38  1683               	bsf	3,5	;RP0=1, select bank1
   905  0E39  1303               	bcf	3,6	;RP1=0, select bank1
   906  0E3A  0843               	movf	(main@Vout+2)^(0+128),w
   907  0E3B  1283               	bcf	3,5	;RP0=0, select bank0
   908  0E3C  1303               	bcf	3,6	;RP1=0, select bank0
   909  0E3D  00A6               	movwf	___flmul@a+2
   910  0E3E  1683               	bsf	3,5	;RP0=1, select bank1
   911  0E3F  1303               	bcf	3,6	;RP1=0, select bank1
   912  0E40  0842               	movf	(main@Vout+1)^(0+128),w
   913  0E41  1283               	bcf	3,5	;RP0=0, select bank0
   914  0E42  1303               	bcf	3,6	;RP1=0, select bank0
   915  0E43  00A5               	movwf	___flmul@a+1
   916  0E44  1683               	bsf	3,5	;RP0=1, select bank1
   917  0E45  1303               	bcf	3,6	;RP1=0, select bank1
   918  0E46  0841               	movf	main@Vout^(0+128),w
   919  0E47  1283               	bcf	3,5	;RP0=0, select bank0
   920  0E48  1303               	bcf	3,6	;RP1=0, select bank0
   921  0E49  00A4               	movwf	___flmul@a
   922  0E4A  120A  118A  2497  120A  158A  	fcall	___flmul
   923  0E4F  1283               	bcf	3,5	;RP0=0, select bank0
   924  0E50  1303               	bcf	3,6	;RP1=0, select bank0
   925  0E51  0823               	movf	?___flmul+3,w
   926  0E52  00E4               	movwf	round@x+3
   927  0E53  0822               	movf	?___flmul+2,w
   928  0E54  00E3               	movwf	round@x+2
   929  0E55  0821               	movf	?___flmul+1,w
   930  0E56  00E2               	movwf	round@x+1
   931  0E57  0820               	movf	?___flmul,w
   932  0E58  00E1               	movwf	round@x
   933  0E59  120A  158A  22CB  120A  158A  	fcall	_round
   934  0E5E  1283               	bcf	3,5	;RP0=0, select bank0
   935  0E5F  1303               	bcf	3,6	;RP1=0, select bank0
   936  0E60  0864               	movf	?_round+3,w
   937  0E61  1683               	bsf	3,5	;RP0=1, select bank1
   938  0E62  1303               	bcf	3,6	;RP1=0, select bank1
   939  0E63  00A7               	movwf	(___fldiv@b+3)^(0+128)
   940  0E64  1283               	bcf	3,5	;RP0=0, select bank0
   941  0E65  1303               	bcf	3,6	;RP1=0, select bank0
   942  0E66  0863               	movf	?_round+2,w
   943  0E67  1683               	bsf	3,5	;RP0=1, select bank1
   944  0E68  1303               	bcf	3,6	;RP1=0, select bank1
   945  0E69  00A6               	movwf	(___fldiv@b+2)^(0+128)
   946  0E6A  1283               	bcf	3,5	;RP0=0, select bank0
   947  0E6B  1303               	bcf	3,6	;RP1=0, select bank0
   948  0E6C  0862               	movf	?_round+1,w
   949  0E6D  1683               	bsf	3,5	;RP0=1, select bank1
   950  0E6E  1303               	bcf	3,6	;RP1=0, select bank1
   951  0E6F  00A5               	movwf	(___fldiv@b+1)^(0+128)
   952  0E70  1283               	bcf	3,5	;RP0=0, select bank0
   953  0E71  1303               	bcf	3,6	;RP1=0, select bank0
   954  0E72  0861               	movf	?_round,w
   955  0E73  1683               	bsf	3,5	;RP0=1, select bank1
   956  0E74  1303               	bcf	3,6	;RP1=0, select bank1
   957  0E75  00A4               	movwf	___fldiv@b^(0+128)
   958  0E76  120A  158A  2332  120A  158A  	fcall	___fldiv
   959  0E7B  1683               	bsf	3,5	;RP0=1, select bank1
   960  0E7C  1303               	bcf	3,6	;RP1=0, select bank1
   961  0E7D  0823               	movf	(?___fldiv+3)^(0+128),w
   962  0E7E  00C8               	movwf	(main@Re_Vout+3)^(0+128)
   963  0E7F  0822               	movf	(?___fldiv+2)^(0+128),w
   964  0E80  00C7               	movwf	(main@Re_Vout+2)^(0+128)
   965  0E81  0821               	movf	(?___fldiv+1)^(0+128),w
   966  0E82  00C6               	movwf	(main@Re_Vout+1)^(0+128)
   967  0E83  0820               	movf	?___fldiv^(0+128),w
   968  0E84  00C5               	movwf	main@Re_Vout^(0+128)
   969  0E85                     l2219:
   970                           
   971                           ;BAI_5_HIEN.c: 41:         if(Vout < 1) {
   972  0E85  0844               	movf	(main@Vout+3)^(0+128),w
   973  0E86  00F3               	movwf	___flge@ff1+3
   974  0E87  0843               	movf	(main@Vout+2)^(0+128),w
   975  0E88  00F2               	movwf	___flge@ff1+2
   976  0E89  0842               	movf	(main@Vout+1)^(0+128),w
   977  0E8A  00F1               	movwf	___flge@ff1+1
   978  0E8B  0841               	movf	main@Vout^(0+128),w
   979  0E8C  00F0               	movwf	___flge@ff1
   980  0E8D  303F               	movlw	63
   981  0E8E  00F7               	movwf	___flge@ff2+3
   982  0E8F  3080               	movlw	128
   983  0E90  00F6               	movwf	___flge@ff2+2
   984  0E91  3000               	movlw	0
   985  0E92  00F5               	movwf	___flge@ff2+1
   986  0E93  3000               	movlw	0
   987  0E94  00F4               	movwf	___flge@ff2
   988  0E95  120A  118A  20A1  120A  158A  	fcall	___flge
   989  0E9A  1803               	btfsc	3,0
   990  0E9B  2E9D               	goto	u3421
   991  0E9C  2E9E               	goto	u3420
   992  0E9D                     u3421:
   993  0E9D  2F38               	goto	l2231
   994  0E9E                     u3420:
   995  0E9E                     l2221:
   996                           
   997                           ;BAI_5_HIEN.c: 42:             temp = (Re_Vout * 1000);
   998  0E9E  1683               	bsf	3,5	;RP0=1, select bank1
   999  0E9F  1303               	bcf	3,6	;RP1=0, select bank1
  1000  0EA0  0848               	movf	(main@Re_Vout+3)^(0+128),w
  1001  0EA1  1283               	bcf	3,5	;RP0=0, select bank0
  1002  0EA2  1303               	bcf	3,6	;RP1=0, select bank0
  1003  0EA3  00A7               	movwf	___flmul@a+3
  1004  0EA4  1683               	bsf	3,5	;RP0=1, select bank1
  1005  0EA5  1303               	bcf	3,6	;RP1=0, select bank1
  1006  0EA6  0847               	movf	(main@Re_Vout+2)^(0+128),w
  1007  0EA7  1283               	bcf	3,5	;RP0=0, select bank0
  1008  0EA8  1303               	bcf	3,6	;RP1=0, select bank0
  1009  0EA9  00A6               	movwf	___flmul@a+2
  1010  0EAA  1683               	bsf	3,5	;RP0=1, select bank1
  1011  0EAB  1303               	bcf	3,6	;RP1=0, select bank1
  1012  0EAC  0846               	movf	(main@Re_Vout+1)^(0+128),w
  1013  0EAD  1283               	bcf	3,5	;RP0=0, select bank0
  1014  0EAE  1303               	bcf	3,6	;RP1=0, select bank0
  1015  0EAF  00A5               	movwf	___flmul@a+1
  1016  0EB0  1683               	bsf	3,5	;RP0=1, select bank1
  1017  0EB1  1303               	bcf	3,6	;RP1=0, select bank1
  1018  0EB2  0845               	movf	main@Re_Vout^(0+128),w
  1019  0EB3  1283               	bcf	3,5	;RP0=0, select bank0
  1020  0EB4  1303               	bcf	3,6	;RP1=0, select bank0
  1021  0EB5  00A4               	movwf	___flmul@a
  1022  0EB6  3044               	movlw	68
  1023  0EB7  00A3               	movwf	___flmul@b+3
  1024  0EB8  307A               	movlw	122
  1025  0EB9  00A2               	movwf	___flmul@b+2
  1026  0EBA  3000               	movlw	0
  1027  0EBB  00A1               	movwf	___flmul@b+1
  1028  0EBC  3000               	movlw	0
  1029  0EBD  00A0               	movwf	___flmul@b
  1030  0EBE  120A  118A  2497  120A  158A  	fcall	___flmul
  1031  0EC3  1283               	bcf	3,5	;RP0=0, select bank0
  1032  0EC4  1303               	bcf	3,6	;RP1=0, select bank0
  1033  0EC5  0823               	movf	?___flmul+3,w
  1034  0EC6  00B8               	movwf	___fltol@f1+3
  1035  0EC7  0822               	movf	?___flmul+2,w
  1036  0EC8  00B7               	movwf	___fltol@f1+2
  1037  0EC9  0821               	movf	?___flmul+1,w
  1038  0ECA  00B6               	movwf	___fltol@f1+1
  1039  0ECB  0820               	movf	?___flmul,w
  1040  0ECC  00B5               	movwf	___fltol@f1
  1041  0ECD  120A  118A  2025  120A  158A  	fcall	___fltol
  1042  0ED2  1283               	bcf	3,5	;RP0=0, select bank0
  1043  0ED3  1303               	bcf	3,6	;RP1=0, select bank0
  1044  0ED4  0836               	movf	?___fltol+1,w
  1045  0ED5  1683               	bsf	3,5	;RP0=1, select bank1
  1046  0ED6  1303               	bcf	3,6	;RP1=0, select bank1
  1047  0ED7  00CC               	movwf	(main@temp+1)^(0+128)
  1048  0ED8  1283               	bcf	3,5	;RP0=0, select bank0
  1049  0ED9  1303               	bcf	3,6	;RP1=0, select bank0
  1050  0EDA  0835               	movf	?___fltol,w
  1051  0EDB  1683               	bsf	3,5	;RP0=1, select bank1
  1052  0EDC  1303               	bcf	3,6	;RP1=0, select bank1
  1053  0EDD  00CB               	movwf	main@temp^(0+128)
  1054  0EDE                     l2223:
  1055                           
  1056                           ;BAI_5_HIEN.c: 43:             TR = (temp % 100) % 10;
  1057  0EDE  084C               	movf	(main@temp+1)^(0+128),w
  1058  0EDF  00F3               	movwf	___lwmod@dividend+1
  1059  0EE0  084B               	movf	main@temp^(0+128),w
  1060  0EE1  00F2               	movwf	___lwmod@dividend
  1061  0EE2  3064               	movlw	100
  1062  0EE3  00F0               	movwf	___lwmod@divisor
  1063  0EE4  3000               	movlw	0
  1064  0EE5  00F1               	movwf	___lwmod@divisor+1
  1065  0EE6  120A  158A  214F  120A  158A  	fcall	___lwmod
  1066  0EEB  0871               	movf	?___lwmod+1,w
  1067  0EEC  1683               	bsf	3,5	;RP0=1, select bank1
  1068  0EED  1303               	bcf	3,6	;RP1=0, select bank1
  1069  0EEE  00CA               	movwf	(_main$709+1)^(0+128)
  1070  0EEF  0870               	movf	?___lwmod,w
  1071  0EF0  00C9               	movwf	_main$709^(0+128)
  1072  0EF1                     l2225:
  1073                           
  1074                           ;BAI_5_HIEN.c: 43:             TR = (temp % 100) % 10;
  1075  0EF1  300A               	movlw	10
  1076  0EF2  00F0               	movwf	___lwmod@divisor
  1077  0EF3  3000               	movlw	0
  1078  0EF4  00F1               	movwf	___lwmod@divisor+1
  1079  0EF5  084A               	movf	(_main$709+1)^(0+128),w
  1080  0EF6  00F3               	movwf	___lwmod@dividend+1
  1081  0EF7  0849               	movf	_main$709^(0+128),w
  1082  0EF8  00F2               	movwf	___lwmod@dividend
  1083  0EF9  120A  158A  214F  120A  158A  	fcall	___lwmod
  1084  0EFE  0871               	movf	?___lwmod+1,w
  1085  0EFF  1683               	bsf	3,5	;RP0=1, select bank1
  1086  0F00  1303               	bcf	3,6	;RP1=0, select bank1
  1087  0F01  00BC               	movwf	(main@TR+1)^(0+128)
  1088  0F02  0870               	movf	?___lwmod,w
  1089  0F03  00BB               	movwf	main@TR^(0+128)
  1090  0F04                     l2227:
  1091                           
  1092                           ;BAI_5_HIEN.c: 44:             CH = temp / 100;
  1093  0F04  3064               	movlw	100
  1094  0F05  00F6               	movwf	___lwdiv@divisor
  1095  0F06  3000               	movlw	0
  1096  0F07  00F7               	movwf	___lwdiv@divisor+1
  1097  0F08  084C               	movf	(main@temp+1)^(0+128),w
  1098  0F09  00F9               	movwf	___lwdiv@dividend+1
  1099  0F0A  084B               	movf	main@temp^(0+128),w
  1100  0F0B  00F8               	movwf	___lwdiv@dividend
  1101  0F0C  120A  158A  2189  120A  158A  	fcall	___lwdiv
  1102  0F11  0877               	movf	?___lwdiv+1,w
  1103  0F12  1683               	bsf	3,5	;RP0=1, select bank1
  1104  0F13  1303               	bcf	3,6	;RP1=0, select bank1
  1105  0F14  00BE               	movwf	(main@CH+1)^(0+128)
  1106  0F15  0876               	movf	?___lwdiv,w
  1107  0F16  00BD               	movwf	main@CH^(0+128)
  1108  0F17                     l2229:
  1109                           
  1110                           ;BAI_5_HIEN.c: 45:             DV = (temp % 100) / 10;
  1111  0F17  300A               	movlw	10
  1112  0F18  00F6               	movwf	___lwdiv@divisor
  1113  0F19  3000               	movlw	0
  1114  0F1A  00F7               	movwf	___lwdiv@divisor+1
  1115  0F1B  084C               	movf	(main@temp+1)^(0+128),w
  1116  0F1C  00F3               	movwf	___lwmod@dividend+1
  1117  0F1D  084B               	movf	main@temp^(0+128),w
  1118  0F1E  00F2               	movwf	___lwmod@dividend
  1119  0F1F  3064               	movlw	100
  1120  0F20  00F0               	movwf	___lwmod@divisor
  1121  0F21  3000               	movlw	0
  1122  0F22  00F1               	movwf	___lwmod@divisor+1
  1123  0F23  120A  158A  214F  120A  158A  	fcall	___lwmod
  1124  0F28  0871               	movf	?___lwmod+1,w
  1125  0F29  00F9               	movwf	___lwdiv@dividend+1
  1126  0F2A  0870               	movf	?___lwmod,w
  1127  0F2B  00F8               	movwf	___lwdiv@dividend
  1128  0F2C  120A  158A  2189  120A  158A  	fcall	___lwdiv
  1129  0F31  0877               	movf	?___lwdiv+1,w
  1130  0F32  1683               	bsf	3,5	;RP0=1, select bank1
  1131  0F33  1303               	bcf	3,6	;RP1=0, select bank1
  1132  0F34  00C0               	movwf	(main@DV+1)^(0+128)
  1133  0F35  0876               	movf	?___lwdiv,w
  1134  0F36  00BF               	movwf	main@DV^(0+128)
  1135                           
  1136                           ;BAI_5_HIEN.c: 46:         }else {
  1137  0F37  2FD1               	goto	l2241
  1138  0F38                     l2231:
  1139                           
  1140                           ;BAI_5_HIEN.c: 47:             temp = Re_Vout * 100;
  1141  0F38  1683               	bsf	3,5	;RP0=1, select bank1
  1142  0F39  1303               	bcf	3,6	;RP1=0, select bank1
  1143  0F3A  0848               	movf	(main@Re_Vout+3)^(0+128),w
  1144  0F3B  1283               	bcf	3,5	;RP0=0, select bank0
  1145  0F3C  1303               	bcf	3,6	;RP1=0, select bank0
  1146  0F3D  00A7               	movwf	___flmul@a+3
  1147  0F3E  1683               	bsf	3,5	;RP0=1, select bank1
  1148  0F3F  1303               	bcf	3,6	;RP1=0, select bank1
  1149  0F40  0847               	movf	(main@Re_Vout+2)^(0+128),w
  1150  0F41  1283               	bcf	3,5	;RP0=0, select bank0
  1151  0F42  1303               	bcf	3,6	;RP1=0, select bank0
  1152  0F43  00A6               	movwf	___flmul@a+2
  1153  0F44  1683               	bsf	3,5	;RP0=1, select bank1
  1154  0F45  1303               	bcf	3,6	;RP1=0, select bank1
  1155  0F46  0846               	movf	(main@Re_Vout+1)^(0+128),w
  1156  0F47  1283               	bcf	3,5	;RP0=0, select bank0
  1157  0F48  1303               	bcf	3,6	;RP1=0, select bank0
  1158  0F49  00A5               	movwf	___flmul@a+1
  1159  0F4A  1683               	bsf	3,5	;RP0=1, select bank1
  1160  0F4B  1303               	bcf	3,6	;RP1=0, select bank1
  1161  0F4C  0845               	movf	main@Re_Vout^(0+128),w
  1162  0F4D  1283               	bcf	3,5	;RP0=0, select bank0
  1163  0F4E  1303               	bcf	3,6	;RP1=0, select bank0
  1164  0F4F  00A4               	movwf	___flmul@a
  1165  0F50  3042               	movlw	66
  1166  0F51  00A3               	movwf	___flmul@b+3
  1167  0F52  30C8               	movlw	200
  1168  0F53  00A2               	movwf	___flmul@b+2
  1169  0F54  3000               	movlw	0
  1170  0F55  00A1               	movwf	___flmul@b+1
  1171  0F56  3000               	movlw	0
  1172  0F57  00A0               	movwf	___flmul@b
  1173  0F58  120A  118A  2497  120A  158A  	fcall	___flmul
  1174  0F5D  1283               	bcf	3,5	;RP0=0, select bank0
  1175  0F5E  1303               	bcf	3,6	;RP1=0, select bank0
  1176  0F5F  0823               	movf	?___flmul+3,w
  1177  0F60  00B8               	movwf	___fltol@f1+3
  1178  0F61  0822               	movf	?___flmul+2,w
  1179  0F62  00B7               	movwf	___fltol@f1+2
  1180  0F63  0821               	movf	?___flmul+1,w
  1181  0F64  00B6               	movwf	___fltol@f1+1
  1182  0F65  0820               	movf	?___flmul,w
  1183  0F66  00B5               	movwf	___fltol@f1
  1184  0F67  120A  118A  2025  120A  158A  	fcall	___fltol
  1185  0F6C  1283               	bcf	3,5	;RP0=0, select bank0
  1186  0F6D  1303               	bcf	3,6	;RP1=0, select bank0
  1187  0F6E  0836               	movf	?___fltol+1,w
  1188  0F6F  1683               	bsf	3,5	;RP0=1, select bank1
  1189  0F70  1303               	bcf	3,6	;RP1=0, select bank1
  1190  0F71  00CC               	movwf	(main@temp+1)^(0+128)
  1191  0F72  1283               	bcf	3,5	;RP0=0, select bank0
  1192  0F73  1303               	bcf	3,6	;RP1=0, select bank0
  1193  0F74  0835               	movf	?___fltol,w
  1194  0F75  1683               	bsf	3,5	;RP0=1, select bank1
  1195  0F76  1303               	bcf	3,6	;RP1=0, select bank1
  1196  0F77  00CB               	movwf	main@temp^(0+128)
  1197  0F78                     l2233:
  1198                           
  1199                           ;BAI_5_HIEN.c: 48:       TR = temp / 100;
  1200  0F78  3064               	movlw	100
  1201  0F79  00F6               	movwf	___lwdiv@divisor
  1202  0F7A  3000               	movlw	0
  1203  0F7B  00F7               	movwf	___lwdiv@divisor+1
  1204  0F7C  084C               	movf	(main@temp+1)^(0+128),w
  1205  0F7D  00F9               	movwf	___lwdiv@dividend+1
  1206  0F7E  084B               	movf	main@temp^(0+128),w
  1207  0F7F  00F8               	movwf	___lwdiv@dividend
  1208  0F80  120A  158A  2189  120A  158A  	fcall	___lwdiv
  1209  0F85  0877               	movf	?___lwdiv+1,w
  1210  0F86  1683               	bsf	3,5	;RP0=1, select bank1
  1211  0F87  1303               	bcf	3,6	;RP1=0, select bank1
  1212  0F88  00BC               	movwf	(main@TR+1)^(0+128)
  1213  0F89  0876               	movf	?___lwdiv,w
  1214  0F8A  00BB               	movwf	main@TR^(0+128)
  1215  0F8B                     l2235:
  1216                           
  1217                           ;BAI_5_HIEN.c: 49:             CH = (temp % 100) / 10;
  1218  0F8B  300A               	movlw	10
  1219  0F8C  00F6               	movwf	___lwdiv@divisor
  1220  0F8D  3000               	movlw	0
  1221  0F8E  00F7               	movwf	___lwdiv@divisor+1
  1222  0F8F  084C               	movf	(main@temp+1)^(0+128),w
  1223  0F90  00F3               	movwf	___lwmod@dividend+1
  1224  0F91  084B               	movf	main@temp^(0+128),w
  1225  0F92  00F2               	movwf	___lwmod@dividend
  1226  0F93  3064               	movlw	100
  1227  0F94  00F0               	movwf	___lwmod@divisor
  1228  0F95  3000               	movlw	0
  1229  0F96  00F1               	movwf	___lwmod@divisor+1
  1230  0F97  120A  158A  214F  120A  158A  	fcall	___lwmod
  1231  0F9C  0871               	movf	?___lwmod+1,w
  1232  0F9D  00F9               	movwf	___lwdiv@dividend+1
  1233  0F9E  0870               	movf	?___lwmod,w
  1234  0F9F  00F8               	movwf	___lwdiv@dividend
  1235  0FA0  120A  158A  2189  120A  158A  	fcall	___lwdiv
  1236  0FA5  0877               	movf	?___lwdiv+1,w
  1237  0FA6  1683               	bsf	3,5	;RP0=1, select bank1
  1238  0FA7  1303               	bcf	3,6	;RP1=0, select bank1
  1239  0FA8  00BE               	movwf	(main@CH+1)^(0+128)
  1240  0FA9  0876               	movf	?___lwdiv,w
  1241  0FAA  00BD               	movwf	main@CH^(0+128)
  1242  0FAB                     l2237:
  1243                           
  1244                           ;BAI_5_HIEN.c: 50:             DV = (temp % 100) % 10;
  1245  0FAB  084C               	movf	(main@temp+1)^(0+128),w
  1246  0FAC  00F3               	movwf	___lwmod@dividend+1
  1247  0FAD  084B               	movf	main@temp^(0+128),w
  1248  0FAE  00F2               	movwf	___lwmod@dividend
  1249  0FAF  3064               	movlw	100
  1250  0FB0  00F0               	movwf	___lwmod@divisor
  1251  0FB1  3000               	movlw	0
  1252  0FB2  00F1               	movwf	___lwmod@divisor+1
  1253  0FB3  120A  158A  214F  120A  158A  	fcall	___lwmod
  1254  0FB8  0871               	movf	?___lwmod+1,w
  1255  0FB9  1683               	bsf	3,5	;RP0=1, select bank1
  1256  0FBA  1303               	bcf	3,6	;RP1=0, select bank1
  1257  0FBB  00CA               	movwf	(_main$709+1)^(0+128)
  1258  0FBC  0870               	movf	?___lwmod,w
  1259  0FBD  00C9               	movwf	_main$709^(0+128)
  1260  0FBE                     l2239:
  1261                           
  1262                           ;BAI_5_HIEN.c: 50:             DV = (temp % 100) % 10;
  1263  0FBE  300A               	movlw	10
  1264  0FBF  00F0               	movwf	___lwmod@divisor
  1265  0FC0  3000               	movlw	0
  1266  0FC1  00F1               	movwf	___lwmod@divisor+1
  1267  0FC2  084A               	movf	(_main$709+1)^(0+128),w
  1268  0FC3  00F3               	movwf	___lwmod@dividend+1
  1269  0FC4  0849               	movf	_main$709^(0+128),w
  1270  0FC5  00F2               	movwf	___lwmod@dividend
  1271  0FC6  120A  158A  214F  120A  158A  	fcall	___lwmod
  1272  0FCB  0871               	movf	?___lwmod+1,w
  1273  0FCC  1683               	bsf	3,5	;RP0=1, select bank1
  1274  0FCD  1303               	bcf	3,6	;RP1=0, select bank1
  1275  0FCE  00C0               	movwf	(main@DV+1)^(0+128)
  1276  0FCF  0870               	movf	?___lwmod,w
  1277  0FD0  00BF               	movwf	main@DV^(0+128)
  1278  0FD1                     l2241:
  1279                           
  1280                           ;BAI_5_HIEN.c: 52:   PORTC = led[TR];
  1281  0FD1  083B               	movf	main@TR^(0+128),w
  1282  0FD2  00B5               	movwf	??_main^(0+128)
  1283  0FD3  0735               	addwf	??_main^(0+128),w
  1284  0FD4  3E01               	addlw	low ((main@led-__stringbase)| (0+32768))
  1285  0FD5  0084               	movwf	4
  1286  0FD6  120A  118A  2003  120A  158A  	fcall	stringdir
  1287  0FDB  1283               	bcf	3,5	;RP0=0, select bank0
  1288  0FDC  1303               	bcf	3,6	;RP1=0, select bank0
  1289  0FDD  0087               	movwf	7	;volatile
  1290  0FDE                     l2243:
  1291                           
  1292                           ;BAI_5_HIEN.c: 53:   PORTD = led[CH];
  1293  0FDE  1683               	bsf	3,5	;RP0=1, select bank1
  1294  0FDF  1303               	bcf	3,6	;RP1=0, select bank1
  1295  0FE0  083D               	movf	main@CH^(0+128),w
  1296  0FE1  00B5               	movwf	??_main^(0+128)
  1297  0FE2  0735               	addwf	??_main^(0+128),w
  1298  0FE3  3E01               	addlw	low ((main@led-__stringbase)| (0+32768))
  1299  0FE4  0084               	movwf	4
  1300  0FE5  120A  118A  2003  120A  158A  	fcall	stringdir
  1301  0FEA  1283               	bcf	3,5	;RP0=0, select bank0
  1302  0FEB  1303               	bcf	3,6	;RP1=0, select bank0
  1303  0FEC  0088               	movwf	8	;volatile
  1304  0FED                     l2245:
  1305                           
  1306                           ;BAI_5_HIEN.c: 54:   PORTB = led[DV];
  1307  0FED  1683               	bsf	3,5	;RP0=1, select bank1
  1308  0FEE  1303               	bcf	3,6	;RP1=0, select bank1
  1309  0FEF  083F               	movf	main@DV^(0+128),w
  1310  0FF0  00B5               	movwf	??_main^(0+128)
  1311  0FF1  0735               	addwf	??_main^(0+128),w
  1312  0FF2  3E01               	addlw	low ((main@led-__stringbase)| (0+32768))
  1313  0FF3  0084               	movwf	4
  1314  0FF4  120A  118A  2003  120A  158A  	fcall	stringdir
  1315  0FF9  1283               	bcf	3,5	;RP0=0, select bank0
  1316  0FFA  1303               	bcf	3,6	;RP1=0, select bank0
  1317  0FFB  0086               	movwf	6	;volatile
  1318  0FFC  2DB0               	goto	l2209
  1319  0FFD  120A  118A  2800   	ljmp	start
  1320  1000                     __end_of_main:
  1321                           
  1322                           	psect	text1
  1323  0ACB                     __ptext1:	
  1324 ;; *************** function _round *****************
  1325 ;; Defined at:
  1326 ;;		line 6 in file "C:\Program Files\Microchip\xc8\v2.32\pic\sources\c90\common\round.c"
  1327 ;; Parameters:    Size  Location     Type
  1328 ;;  x               4   65[BANK0 ] void 
  1329 ;; Auto vars:     Size  Location     Type
  1330 ;;  f               4   69[BANK0 ] void 
  1331 ;; Return value:  Size  Location     Type
  1332 ;;                  4   65[BANK0 ] void 
  1333 ;; Registers used:
  1334 ;;		wreg, fsr0l, fsr0h, status,2, status,0, btemp+1, pclath, cstack
  1335 ;; Tracked objects:
  1336 ;;		On entry : 0/0
  1337 ;;		On exit  : 0/0
  1338 ;;		Unchanged: 0/0
  1339 ;; Data sizes:     COMMON   BANK0   BANK1   BANK3   BANK2
  1340 ;;      Params:         0       4       0       0       0
  1341 ;;      Locals:         0       4       0       0       0
  1342 ;;      Temps:          0       0       0       0       0
  1343 ;;      Totals:         0       8       0       0       0
  1344 ;;Total ram usage:        8 bytes
  1345 ;; Hardware stack levels used: 1
  1346 ;; Hardware stack levels required when called: 3
  1347 ;; This function calls:
  1348 ;;		___fladd
  1349 ;;		___flsub
  1350 ;;		_trunc
  1351 ;; This function is called by:
  1352 ;;		_main
  1353 ;; This function uses a non-reentrant model
  1354 ;;
  1355                           
  1356                           
  1357                           ;psect for function _round
  1358  0ACB                     _round:
  1359  0ACB                     l1815:	
  1360                           ;incstack = 0
  1361                           ; Regs used in _round: [wreg-fsr0h+status,2+status,0+btemp+1+pclath+cstack]
  1362                           
  1363  0ACB  1283               	bcf	3,5	;RP0=0, select bank0
  1364  0ACC  1303               	bcf	3,6	;RP1=0, select bank0
  1365  0ACD  0864               	movf	round@x+3,w
  1366  0ACE  00D1               	movwf	trunc@x+3
  1367  0ACF  0863               	movf	round@x+2,w
  1368  0AD0  00D0               	movwf	trunc@x+2
  1369  0AD1  0862               	movf	round@x+1,w
  1370  0AD2  00CF               	movwf	trunc@x+1
  1371  0AD3  0861               	movf	round@x,w
  1372  0AD4  00CE               	movwf	trunc@x
  1373  0AD5  120A  158A  226F  120A  158A  	fcall	_trunc
  1374  0ADA  1283               	bcf	3,5	;RP0=0, select bank0
  1375  0ADB  1303               	bcf	3,6	;RP1=0, select bank0
  1376  0ADC  0851               	movf	?_trunc+3,w
  1377  0ADD  00DC               	movwf	___flsub@a+3
  1378  0ADE  0850               	movf	?_trunc+2,w
  1379  0ADF  00DB               	movwf	___flsub@a+2
  1380  0AE0  084F               	movf	?_trunc+1,w
  1381  0AE1  00DA               	movwf	___flsub@a+1
  1382  0AE2  084E               	movf	?_trunc,w
  1383  0AE3  00D9               	movwf	___flsub@a
  1384  0AE4  0864               	movf	round@x+3,w
  1385  0AE5  00E0               	movwf	___flsub@b+3
  1386  0AE6  0863               	movf	round@x+2,w
  1387  0AE7  00DF               	movwf	___flsub@b+2
  1388  0AE8  0862               	movf	round@x+1,w
  1389  0AE9  00DE               	movwf	___flsub@b+1
  1390  0AEA  0861               	movf	round@x,w
  1391  0AEB  00DD               	movwf	___flsub@b
  1392  0AEC  120A  158A  20DF  120A  158A  	fcall	___flsub
  1393  0AF1  1283               	bcf	3,5	;RP0=0, select bank0
  1394  0AF2  1303               	bcf	3,6	;RP1=0, select bank0
  1395  0AF3  085C               	movf	?___flsub+3,w
  1396  0AF4  00E8               	movwf	round@f+3
  1397  0AF5  085B               	movf	?___flsub+2,w
  1398  0AF6  00E7               	movwf	round@f+2
  1399  0AF7  085A               	movf	?___flsub+1,w
  1400  0AF8  00E6               	movwf	round@f+1
  1401  0AF9  0859               	movf	?___flsub,w
  1402  0AFA  00E5               	movwf	round@f
  1403  0AFB                     l1817:
  1404  0AFB  0868               	movf	round@f+3,w
  1405  0AFC  00F3               	movwf	___fladd@b+3
  1406  0AFD  0867               	movf	round@f+2,w
  1407  0AFE  00F2               	movwf	___fladd@b+2
  1408  0AFF  0866               	movf	round@f+1,w
  1409  0B00  00F1               	movwf	___fladd@b+1
  1410  0B01  0865               	movf	round@f,w
  1411  0B02  00F0               	movwf	___fladd@b
  1412  0B03  0864               	movf	round@x+3,w
  1413  0B04  00F7               	movwf	___fladd@a+3
  1414  0B05  0863               	movf	round@x+2,w
  1415  0B06  00F6               	movwf	___fladd@a+2
  1416  0B07  0862               	movf	round@x+1,w
  1417  0B08  00F5               	movwf	___fladd@a+1
  1418  0B09  0861               	movf	round@x,w
  1419  0B0A  00F4               	movwf	___fladd@a
  1420  0B0B  120A  118A  21FF  120A  158A  	fcall	___fladd
  1421  0B10  0873               	movf	?___fladd+3,w
  1422  0B11  1283               	bcf	3,5	;RP0=0, select bank0
  1423  0B12  1303               	bcf	3,6	;RP1=0, select bank0
  1424  0B13  00E4               	movwf	round@x+3
  1425  0B14  0872               	movf	?___fladd+2,w
  1426  0B15  00E3               	movwf	round@x+2
  1427  0B16  0871               	movf	?___fladd+1,w
  1428  0B17  00E2               	movwf	round@x+1
  1429  0B18  0870               	movf	?___fladd,w
  1430  0B19  00E1               	movwf	round@x
  1431  0B1A                     l1819:
  1432  0B1A  0864               	movf	round@x+3,w
  1433  0B1B  00D1               	movwf	trunc@x+3
  1434  0B1C  0863               	movf	round@x+2,w
  1435  0B1D  00D0               	movwf	trunc@x+2
  1436  0B1E  0862               	movf	round@x+1,w
  1437  0B1F  00CF               	movwf	trunc@x+1
  1438  0B20  0861               	movf	round@x,w
  1439  0B21  00CE               	movwf	trunc@x
  1440  0B22  120A  158A  226F  120A  158A  	fcall	_trunc
  1441  0B27  1283               	bcf	3,5	;RP0=0, select bank0
  1442  0B28  1303               	bcf	3,6	;RP1=0, select bank0
  1443  0B29  0851               	movf	?_trunc+3,w
  1444  0B2A  00E4               	movwf	?_round+3
  1445  0B2B  0850               	movf	?_trunc+2,w
  1446  0B2C  00E3               	movwf	?_round+2
  1447  0B2D  084F               	movf	?_trunc+1,w
  1448  0B2E  00E2               	movwf	?_round+1
  1449  0B2F  084E               	movf	?_trunc,w
  1450  0B30  00E1               	movwf	?_round
  1451  0B31                     l588:
  1452  0B31  0008               	return
  1453  0B32                     __end_of_round:
  1454                           
  1455                           	psect	text2
  1456  0A6F                     __ptext2:	
  1457 ;; *************** function _trunc *****************
  1458 ;; Defined at:
  1459 ;;		line 13 in file "C:\Program Files\Microchip\xc8\v2.32\pic\sources\c90\common\trunc.c"
  1460 ;; Parameters:    Size  Location     Type
  1461 ;;  x               4   46[BANK0 ] void 
  1462 ;; Auto vars:     Size  Location     Type
  1463 ;;  i               4   51[BANK0 ] void 
  1464 ;;  expon           2   55[BANK0 ] int 
  1465 ;; Return value:  Size  Location     Type
  1466 ;;                  4   46[BANK0 ] int 
  1467 ;; Registers used:
  1468 ;;		wreg, fsr0l, fsr0h, status,2, status,0, btemp+1, pclath, cstack
  1469 ;; Tracked objects:
  1470 ;;		On entry : 0/0
  1471 ;;		On exit  : 0/0
  1472 ;;		Unchanged: 0/0
  1473 ;; Data sizes:     COMMON   BANK0   BANK1   BANK3   BANK2
  1474 ;;      Params:         0       4       0       0       0
  1475 ;;      Locals:         0       6       0       0       0
  1476 ;;      Temps:          0       1       0       0       0
  1477 ;;      Totals:         0      11       0       0       0
  1478 ;;Total ram usage:       11 bytes
  1479 ;; Hardware stack levels used: 1
  1480 ;; Hardware stack levels required when called: 2
  1481 ;; This function calls:
  1482 ;;		___fltol
  1483 ;;		___xxtofl
  1484 ;;		_frexp
  1485 ;; This function is called by:
  1486 ;;		_round
  1487 ;; This function uses a non-reentrant model
  1488 ;;
  1489                           
  1490                           
  1491                           ;psect for function _trunc
  1492  0A6F                     _trunc:
  1493  0A6F                     l1797:	
  1494                           ;incstack = 0
  1495                           ; Regs used in _trunc: [wreg-fsr0h+status,2+status,0+btemp+1+pclath+cstack]
  1496                           
  1497  0A6F  1283               	bcf	3,5	;RP0=0, select bank0
  1498  0A70  1303               	bcf	3,6	;RP1=0, select bank0
  1499  0A71  0851               	movf	trunc@x+3,w
  1500  0A72  00A3               	movwf	frexp@value+3
  1501  0A73  0850               	movf	trunc@x+2,w
  1502  0A74  00A2               	movwf	frexp@value+2
  1503  0A75  084F               	movf	trunc@x+1,w
  1504  0A76  00A1               	movwf	frexp@value+1
  1505  0A77  084E               	movf	trunc@x,w
  1506  0A78  00A0               	movwf	frexp@value
  1507  0A79  3057               	movlw	(low (trunc@expon| 0))& (0+255)
  1508  0A7A  00D2               	movwf	??_trunc
  1509  0A7B  0852               	movf	??_trunc,w
  1510  0A7C  00A4               	movwf	frexp@eptr
  1511  0A7D  120A  158A  221B  120A  158A  	fcall	_frexp
  1512  0A82                     l1799:
  1513  0A82  1283               	bcf	3,5	;RP0=0, select bank0
  1514  0A83  1303               	bcf	3,6	;RP1=0, select bank0
  1515  0A84  1FD8               	btfss	trunc@expon+1,7
  1516  0A85  2A87               	goto	u2491
  1517  0A86  2A88               	goto	u2490
  1518  0A87                     u2491:
  1519  0A87  2A91               	goto	l1805
  1520  0A88                     u2490:
  1521  0A88                     l1801:
  1522  0A88  3000               	movlw	0
  1523  0A89  00D1               	movwf	?_trunc+3
  1524  0A8A  3000               	movlw	0
  1525  0A8B  00D0               	movwf	?_trunc+2
  1526  0A8C  3000               	movlw	0
  1527  0A8D  00CF               	movwf	?_trunc+1
  1528  0A8E  3000               	movlw	0
  1529  0A8F  00CE               	movwf	?_trunc
  1530  0A90  2ACA               	goto	l594
  1531  0A91                     l1805:
  1532  0A91  3000               	movlw	0
  1533  0A92  0258               	subwf	trunc@expon+1,w
  1534  0A93  301D               	movlw	29
  1535  0A94  1903               	skipnz
  1536  0A95  0257               	subwf	trunc@expon,w
  1537  0A96  1C03               	skipc
  1538  0A97  2A99               	goto	u2501
  1539  0A98  2A9A               	goto	u2500
  1540  0A99                     u2501:
  1541  0A99  2A9B               	goto	l1809
  1542  0A9A                     u2500:
  1543  0A9A                     l1807:
  1544  0A9A  2ACA               	goto	l594
  1545  0A9B                     l1809:
  1546  0A9B  0851               	movf	trunc@x+3,w
  1547  0A9C  00B8               	movwf	___fltol@f1+3
  1548  0A9D  0850               	movf	trunc@x+2,w
  1549  0A9E  00B7               	movwf	___fltol@f1+2
  1550  0A9F  084F               	movf	trunc@x+1,w
  1551  0AA0  00B6               	movwf	___fltol@f1+1
  1552  0AA1  084E               	movf	trunc@x,w
  1553  0AA2  00B5               	movwf	___fltol@f1
  1554  0AA3  120A  118A  2025  120A  158A  	fcall	___fltol
  1555  0AA8  1283               	bcf	3,5	;RP0=0, select bank0
  1556  0AA9  1303               	bcf	3,6	;RP1=0, select bank0
  1557  0AAA  0838               	movf	?___fltol+3,w
  1558  0AAB  00C3               	movwf	___xxtofl@val+3
  1559  0AAC  0837               	movf	?___fltol+2,w
  1560  0AAD  00C2               	movwf	___xxtofl@val+2
  1561  0AAE  0836               	movf	?___fltol+1,w
  1562  0AAF  00C1               	movwf	___xxtofl@val+1
  1563  0AB0  0835               	movf	?___fltol,w
  1564  0AB1  00C0               	movwf	___xxtofl@val
  1565  0AB2  3001               	movlw	1
  1566  0AB3  120A  118A  2143  120A  158A  	fcall	___xxtofl
  1567  0AB8  1283               	bcf	3,5	;RP0=0, select bank0
  1568  0AB9  1303               	bcf	3,6	;RP1=0, select bank0
  1569  0ABA  0843               	movf	?___xxtofl+3,w
  1570  0ABB  00D6               	movwf	trunc@i+3
  1571  0ABC  0842               	movf	?___xxtofl+2,w
  1572  0ABD  00D5               	movwf	trunc@i+2
  1573  0ABE  0841               	movf	?___xxtofl+1,w
  1574  0ABF  00D4               	movwf	trunc@i+1
  1575  0AC0  0840               	movf	?___xxtofl,w
  1576  0AC1  00D3               	movwf	trunc@i
  1577  0AC2                     l1811:
  1578  0AC2  0856               	movf	trunc@i+3,w
  1579  0AC3  00D1               	movwf	?_trunc+3
  1580  0AC4  0855               	movf	trunc@i+2,w
  1581  0AC5  00D0               	movwf	?_trunc+2
  1582  0AC6  0854               	movf	trunc@i+1,w
  1583  0AC7  00CF               	movwf	?_trunc+1
  1584  0AC8  0853               	movf	trunc@i,w
  1585  0AC9  00CE               	movwf	?_trunc
  1586  0ACA                     l594:
  1587  0ACA  0008               	return
  1588  0ACB                     __end_of_trunc:
  1589                           
  1590                           	psect	text3
  1591  0A1B                     __ptext3:	
  1592 ;; *************** function _frexp *****************
  1593 ;; Defined at:
  1594 ;;		line 254 in file "C:\Program Files\Microchip\xc8\v2.32\pic\sources\c90\common\frexp.c"
  1595 ;; Parameters:    Size  Location     Type
  1596 ;;  value           4    0[BANK0 ] int 
  1597 ;;  eptr            1    4[BANK0 ] PTR int 
  1598 ;;		 -> trunc@expon(2), 
  1599 ;; Auto vars:     Size  Location     Type
  1600 ;;		None
  1601 ;; Return value:  Size  Location     Type
  1602 ;;                  4    0[BANK0 ] PTR int 
  1603 ;; Registers used:
  1604 ;;		wreg, fsr0l, fsr0h, status,2, status,0, btemp+1, pclath, cstack
  1605 ;; Tracked objects:
  1606 ;;		On entry : 0/0
  1607 ;;		On exit  : 0/0
  1608 ;;		Unchanged: 0/0
  1609 ;; Data sizes:     COMMON   BANK0   BANK1   BANK3   BANK2
  1610 ;;      Params:         0       5       0       0       0
  1611 ;;      Locals:         0       0       0       0       0
  1612 ;;      Temps:          2       0       0       0       0
  1613 ;;      Totals:         2       5       0       0       0
  1614 ;;Total ram usage:        7 bytes
  1615 ;; Hardware stack levels used: 1
  1616 ;; Hardware stack levels required when called: 1
  1617 ;; This function calls:
  1618 ;;		___fleq
  1619 ;; This function is called by:
  1620 ;;		_trunc
  1621 ;; This function uses a non-reentrant model
  1622 ;;
  1623                           
  1624                           
  1625                           ;psect for function _frexp
  1626  0A1B                     _frexp:
  1627  0A1B                     l1761:	
  1628                           ;incstack = 0
  1629                           ; Regs used in _frexp: [wreg-fsr0h+status,2+status,0+btemp+1+pclath+cstack]
  1630                           
  1631  0A1B  1283               	bcf	3,5	;RP0=0, select bank0
  1632  0A1C  1303               	bcf	3,6	;RP1=0, select bank0
  1633  0A1D  0823               	movf	frexp@value+3,w
  1634  0A1E  00F3               	movwf	___fleq@ff1+3
  1635  0A1F  0822               	movf	frexp@value+2,w
  1636  0A20  00F2               	movwf	___fleq@ff1+2
  1637  0A21  0821               	movf	frexp@value+1,w
  1638  0A22  00F1               	movwf	___fleq@ff1+1
  1639  0A23  0820               	movf	frexp@value,w
  1640  0A24  00F0               	movwf	___fleq@ff1
  1641  0A25  3000               	movlw	0
  1642  0A26  00F7               	movwf	___fleq@ff2+3
  1643  0A27  3000               	movlw	0
  1644  0A28  00F6               	movwf	___fleq@ff2+2
  1645  0A29  3000               	movlw	0
  1646  0A2A  00F5               	movwf	___fleq@ff2+1
  1647  0A2B  3000               	movlw	0
  1648  0A2C  00F4               	movwf	___fleq@ff2
  1649  0A2D  120A  158A  21CD  120A  158A  	fcall	___fleq
  1650  0A32  1C03               	btfss	3,0
  1651  0A33  2A35               	goto	u2451
  1652  0A34  2A36               	goto	u2450
  1653  0A35                     u2451:
  1654  0A35  2A3F               	goto	l1767
  1655  0A36                     u2450:
  1656  0A36                     l1763:
  1657  0A36  1283               	bcf	3,5	;RP0=0, select bank0
  1658  0A37  1303               	bcf	3,6	;RP1=0, select bank0
  1659  0A38  0824               	movf	frexp@eptr,w
  1660  0A39  0084               	movwf	4
  1661  0A3A  1383               	bcf	3,7	;select IRP bank0
  1662  0A3B  0180               	clrf	0
  1663  0A3C  0A84               	incf	4,f
  1664  0A3D  0180               	clrf	0
  1665  0A3E  2A6E               	goto	l601
  1666  0A3F                     l1767:
  1667  0A3F  1283               	bcf	3,5	;RP0=0, select bank0
  1668  0A40  1303               	bcf	3,6	;RP1=0, select bank0
  1669  0A41  0823               	movf	frexp@value+3,w
  1670  0A42  397F               	andlw	127
  1671  0A43  00FC               	movwf	??_frexp
  1672  0A44  01FD               	clrf	??_frexp+1
  1673  0A45  1003               	clrc
  1674  0A46  0DFC               	rlf	??_frexp,f
  1675  0A47  0DFD               	rlf	??_frexp+1,f
  1676  0A48  0824               	movf	frexp@eptr,w
  1677  0A49  0084               	movwf	4
  1678  0A4A  087C               	movf	??_frexp,w
  1679  0A4B  1383               	bcf	3,7	;select IRP bank0
  1680  0A4C  0080               	movwf	0
  1681  0A4D  0A84               	incf	4,f
  1682  0A4E  087D               	movf	??_frexp+1,w
  1683  0A4F  0080               	movwf	0
  1684  0A50  0D22               	rlf	frexp@value+2,w
  1685  0A51  0D22               	rlf	frexp@value+2,w
  1686  0A52  3901               	andlw	1
  1687  0A53  00FC               	movwf	??_frexp
  1688  0A54  01FD               	clrf	??_frexp+1
  1689  0A55  0824               	movf	frexp@eptr,w
  1690  0A56  0084               	movwf	4
  1691  0A57  087C               	movf	??_frexp,w
  1692  0A58  0480               	iorwf	0,f
  1693  0A59  0A84               	incf	4,f
  1694  0A5A  087D               	movf	??_frexp+1,w
  1695  0A5B  0480               	iorwf	0,f
  1696  0A5C                     l1769:
  1697  0A5C  0824               	movf	frexp@eptr,w
  1698  0A5D  0084               	movwf	4
  1699  0A5E  3082               	movlw	130
  1700  0A5F  0780               	addwf	0,f
  1701  0A60  0F84               	incfsz	4,f
  1702  0A61  0800               	movf	0,w
  1703  0A62  1803               	skipnc
  1704  0A63  0A00               	incf	0,w
  1705  0A64  00FF               	movwf	btemp+1
  1706  0A65  30FF               	movlw	255
  1707  0A66  077F               	addwf	btemp+1,w
  1708  0A67  0080               	movwf	0
  1709  0A68  0384               	decf	4,f
  1710  0A69                     l1771:
  1711  0A69  0823               	movf	frexp@value+3,w
  1712  0A6A  3980               	andlw	-128
  1713  0A6B  383F               	iorlw	63
  1714  0A6C  00A3               	movwf	frexp@value+3
  1715  0A6D                     l1773:
  1716  0A6D  13A2               	bcf	frexp@value+2,7
  1717  0A6E                     l601:
  1718  0A6E  0008               	return
  1719  0A6F                     __end_of_frexp:
  1720                           
  1721                           	psect	text4
  1722  09CD                     __ptext4:	
  1723 ;; *************** function ___fleq *****************
  1724 ;; Defined at:
  1725 ;;		line 4 in file "C:\Program Files\Microchip\xc8\v2.32\pic\sources\c90\common\fleq.c"
  1726 ;; Parameters:    Size  Location     Type
  1727 ;;  ff1             4    0[COMMON] PTR int 
  1728 ;;  ff2             4    4[COMMON] PTR int 
  1729 ;; Auto vars:     Size  Location     Type
  1730 ;;		None
  1731 ;; Return value:  Size  Location     Type
  1732 ;;		None               void
  1733 ;; Registers used:
  1734 ;;		wreg, status,2, status,0
  1735 ;; Tracked objects:
  1736 ;;		On entry : 0/0
  1737 ;;		On exit  : 0/0
  1738 ;;		Unchanged: 0/0
  1739 ;; Data sizes:     COMMON   BANK0   BANK1   BANK3   BANK2
  1740 ;;      Params:         8       0       0       0       0
  1741 ;;      Locals:         0       0       0       0       0
  1742 ;;      Temps:          4       0       0       0       0
  1743 ;;      Totals:        12       0       0       0       0
  1744 ;;Total ram usage:       12 bytes
  1745 ;; Hardware stack levels used: 1
  1746 ;; This function calls:
  1747 ;;		Nothing
  1748 ;; This function is called by:
  1749 ;;		_frexp
  1750 ;; This function uses a non-reentrant model
  1751 ;;
  1752                           
  1753                           
  1754                           ;psect for function ___fleq
  1755  09CD                     ___fleq:
  1756  09CD                     l1475:	
  1757                           ;incstack = 0
  1758                           ; Regs used in ___fleq: [wreg+status,2+status,0]
  1759                           
  1760  09CD  3000               	movlw	0
  1761  09CE  0570               	andwf	___fleq@ff1,w
  1762  09CF  00F8               	movwf	??___fleq
  1763  09D0  3000               	movlw	0
  1764  09D1  0571               	andwf	___fleq@ff1+1,w
  1765  09D2  00F9               	movwf	??___fleq+1
  1766  09D3  3080               	movlw	128
  1767  09D4  0572               	andwf	___fleq@ff1+2,w
  1768  09D5  00FA               	movwf	??___fleq+2
  1769  09D6  307F               	movlw	127
  1770  09D7  0573               	andwf	___fleq@ff1+3,w
  1771  09D8  00FB               	movwf	??___fleq+3
  1772  09D9  087B               	movf	??___fleq+3,w
  1773  09DA  047A               	iorwf	??___fleq+2,w
  1774  09DB  0479               	iorwf	??___fleq+1,w
  1775  09DC  0478               	iorwf	??___fleq,w
  1776  09DD  1D03               	skipz
  1777  09DE  29E0               	goto	u1721
  1778  09DF  29E1               	goto	u1720
  1779  09E0                     u1721:
  1780  09E0  29E9               	goto	l304
  1781  09E1                     u1720:
  1782  09E1                     l1477:
  1783  09E1  3000               	movlw	0
  1784  09E2  00F3               	movwf	___fleq@ff1+3
  1785  09E3  3000               	movlw	0
  1786  09E4  00F2               	movwf	___fleq@ff1+2
  1787  09E5  3000               	movlw	0
  1788  09E6  00F1               	movwf	___fleq@ff1+1
  1789  09E7  3000               	movlw	0
  1790  09E8  00F0               	movwf	___fleq@ff1
  1791  09E9                     l304:
  1792  09E9  3000               	movlw	0
  1793  09EA  0574               	andwf	___fleq@ff2,w
  1794  09EB  00F8               	movwf	??___fleq
  1795  09EC  3000               	movlw	0
  1796  09ED  0575               	andwf	___fleq@ff2+1,w
  1797  09EE  00F9               	movwf	??___fleq+1
  1798  09EF  3080               	movlw	128
  1799  09F0  0576               	andwf	___fleq@ff2+2,w
  1800  09F1  00FA               	movwf	??___fleq+2
  1801  09F2  307F               	movlw	127
  1802  09F3  0577               	andwf	___fleq@ff2+3,w
  1803  09F4  00FB               	movwf	??___fleq+3
  1804  09F5  087B               	movf	??___fleq+3,w
  1805  09F6  047A               	iorwf	??___fleq+2,w
  1806  09F7  0479               	iorwf	??___fleq+1,w
  1807  09F8  0478               	iorwf	??___fleq,w
  1808  09F9  1D03               	skipz
  1809  09FA  29FC               	goto	u1731
  1810  09FB  29FD               	goto	u1730
  1811  09FC                     u1731:
  1812  09FC  2A05               	goto	l305
  1813  09FD                     u1730:
  1814  09FD                     l1479:
  1815  09FD  3000               	movlw	0
  1816  09FE  00F7               	movwf	___fleq@ff2+3
  1817  09FF  3000               	movlw	0
  1818  0A00  00F6               	movwf	___fleq@ff2+2
  1819  0A01  3000               	movlw	0
  1820  0A02  00F5               	movwf	___fleq@ff2+1
  1821  0A03  3000               	movlw	0
  1822  0A04  00F4               	movwf	___fleq@ff2
  1823  0A05                     l305:
  1824  0A05  0877               	movf	___fleq@ff2+3,w
  1825  0A06  0673               	xorwf	___fleq@ff1+3,w
  1826  0A07  1D03               	skipz
  1827  0A08  2A13               	goto	u1745
  1828  0A09  0876               	movf	___fleq@ff2+2,w
  1829  0A0A  0672               	xorwf	___fleq@ff1+2,w
  1830  0A0B  1D03               	skipz
  1831  0A0C  2A13               	goto	u1745
  1832  0A0D  0875               	movf	___fleq@ff2+1,w
  1833  0A0E  0671               	xorwf	___fleq@ff1+1,w
  1834  0A0F  1D03               	skipz
  1835  0A10  2A13               	goto	u1745
  1836  0A11  0874               	movf	___fleq@ff2,w
  1837  0A12  0670               	xorwf	___fleq@ff1,w
  1838  0A13                     u1745:
  1839  0A13  1903               	skipnz
  1840  0A14  2A16               	goto	u1741
  1841  0A15  2A17               	goto	u1740
  1842  0A16                     u1741:
  1843  0A16  2A19               	goto	l1483
  1844  0A17                     u1740:
  1845  0A17                     l1481:
  1846  0A17  1003               	clrc
  1847  0A18  2A1A               	goto	l306
  1848  0A19                     l1483:
  1849  0A19  1403               	setc
  1850  0A1A                     l306:
  1851  0A1A  0008               	return
  1852  0A1B                     __end_of___fleq:
  1853                           
  1854                           	psect	text5
  1855  0143                     __ptext5:	
  1856 ;; *************** function ___xxtofl *****************
  1857 ;; Defined at:
  1858 ;;		line 10 in file "C:\Program Files\Microchip\xc8\v2.32\pic\sources\c90\common\xxtofl.c"
  1859 ;; Parameters:    Size  Location     Type
  1860 ;;  sign            1    wreg     unsigned char 
  1861 ;;  val             4   32[BANK0 ] long 
  1862 ;; Auto vars:     Size  Location     Type
  1863 ;;  sign            1   40[BANK0 ] unsigned char 
  1864 ;;  arg             4   42[BANK0 ] unsigned long 
  1865 ;;  exp             1   41[BANK0 ] unsigned char 
  1866 ;; Return value:  Size  Location     Type
  1867 ;;                  4   32[BANK0 ] unsigned char 
  1868 ;; Registers used:
  1869 ;;		wreg, status,2, status,0
  1870 ;; Tracked objects:
  1871 ;;		On entry : 0/0
  1872 ;;		On exit  : 0/0
  1873 ;;		Unchanged: 0/0
  1874 ;; Data sizes:     COMMON   BANK0   BANK1   BANK3   BANK2
  1875 ;;      Params:         0       4       0       0       0
  1876 ;;      Locals:         0       6       0       0       0
  1877 ;;      Temps:          0       4       0       0       0
  1878 ;;      Totals:         0      14       0       0       0
  1879 ;;Total ram usage:       14 bytes
  1880 ;; Hardware stack levels used: 1
  1881 ;; This function calls:
  1882 ;;		Nothing
  1883 ;; This function is called by:
  1884 ;;		_main
  1885 ;;		_trunc
  1886 ;; This function uses a non-reentrant model
  1887 ;;
  1888                           
  1889                           
  1890                           ;psect for function ___xxtofl
  1891  0143                     ___xxtofl:
  1892                           
  1893                           ;incstack = 0
  1894                           ; Regs used in ___xxtofl: [wreg+status,2+status,0]
  1895                           ;___xxtofl@sign stored from wreg
  1896  0143  1283               	bcf	3,5	;RP0=0, select bank0
  1897  0144  1303               	bcf	3,6	;RP1=0, select bank0
  1898  0145  00C8               	movwf	___xxtofl@sign
  1899  0146                     l1717:
  1900  0146  0848               	movf	___xxtofl@sign,w
  1901  0147  1903               	btfsc	3,2
  1902  0148  294A               	goto	u2311
  1903  0149  294B               	goto	u2310
  1904  014A                     u2311:
  1905  014A  295F               	goto	l1723
  1906  014B                     u2310:
  1907  014B                     l1719:
  1908  014B  1FC3               	btfss	___xxtofl@val+3,7
  1909  014C  294E               	goto	u2321
  1910  014D  294F               	goto	u2320
  1911  014E                     u2321:
  1912  014E  295F               	goto	l1723
  1913  014F                     u2320:
  1914  014F                     l1721:
  1915  014F  0940               	comf	___xxtofl@val,w
  1916  0150  00CA               	movwf	___xxtofl@arg
  1917  0151  0941               	comf	___xxtofl@val+1,w
  1918  0152  00CB               	movwf	___xxtofl@arg+1
  1919  0153  0942               	comf	___xxtofl@val+2,w
  1920  0154  00CC               	movwf	___xxtofl@arg+2
  1921  0155  0943               	comf	___xxtofl@val+3,w
  1922  0156  00CD               	movwf	___xxtofl@arg+3
  1923  0157  0ACA               	incf	___xxtofl@arg,f
  1924  0158  1903               	skipnz
  1925  0159  0ACB               	incf	___xxtofl@arg+1,f
  1926  015A  1903               	skipnz
  1927  015B  0ACC               	incf	___xxtofl@arg+2,f
  1928  015C  1903               	skipnz
  1929  015D  0ACD               	incf	___xxtofl@arg+3,f
  1930  015E  2967               	goto	l568
  1931  015F                     l1723:
  1932  015F  0843               	movf	___xxtofl@val+3,w
  1933  0160  00CD               	movwf	___xxtofl@arg+3
  1934  0161  0842               	movf	___xxtofl@val+2,w
  1935  0162  00CC               	movwf	___xxtofl@arg+2
  1936  0163  0841               	movf	___xxtofl@val+1,w
  1937  0164  00CB               	movwf	___xxtofl@arg+1
  1938  0165  0840               	movf	___xxtofl@val,w
  1939  0166  00CA               	movwf	___xxtofl@arg
  1940  0167                     l568:
  1941  0167  0843               	movf	___xxtofl@val+3,w
  1942  0168  0442               	iorwf	___xxtofl@val+2,w
  1943  0169  0441               	iorwf	___xxtofl@val+1,w
  1944  016A  0440               	iorwf	___xxtofl@val,w
  1945  016B  1D03               	skipz
  1946  016C  296E               	goto	u2331
  1947  016D  296F               	goto	u2330
  1948  016E                     u2331:
  1949  016E  2978               	goto	l1729
  1950  016F                     u2330:
  1951  016F                     l1725:
  1952  016F  3000               	movlw	0
  1953  0170  00C3               	movwf	?___xxtofl+3
  1954  0171  3000               	movlw	0
  1955  0172  00C2               	movwf	?___xxtofl+2
  1956  0173  3000               	movlw	0
  1957  0174  00C1               	movwf	?___xxtofl+1
  1958  0175  3000               	movlw	0
  1959  0176  00C0               	movwf	?___xxtofl
  1960  0177  29FE               	goto	l570
  1961  0178                     l1729:
  1962  0178  3096               	movlw	150
  1963  0179  00C4               	movwf	??___xxtofl
  1964  017A  0844               	movf	??___xxtofl,w
  1965  017B  00C9               	movwf	___xxtofl@exp
  1966  017C  298A               	goto	l1733
  1967  017D                     l1731:
  1968  017D  3001               	movlw	1
  1969  017E  00C4               	movwf	??___xxtofl
  1970  017F  0844               	movf	??___xxtofl,w
  1971  0180  07C9               	addwf	___xxtofl@exp,f
  1972  0181  3001               	movlw	1
  1973  0182                     u2345:
  1974  0182  1003               	clrc
  1975  0183  0CCD               	rrf	___xxtofl@arg+3,f
  1976  0184  0CCC               	rrf	___xxtofl@arg+2,f
  1977  0185  0CCB               	rrf	___xxtofl@arg+1,f
  1978  0186  0CCA               	rrf	___xxtofl@arg,f
  1979  0187  3EFF               	addlw	-1
  1980  0188  1D03               	skipz
  1981  0189  2982               	goto	u2345
  1982  018A                     l1733:
  1983  018A  30FE               	movlw	254
  1984  018B  054D               	andwf	___xxtofl@arg+3,w
  1985  018C  1D03               	btfss	3,2
  1986  018D  298F               	goto	u2351
  1987  018E  2990               	goto	u2350
  1988  018F                     u2351:
  1989  018F  297D               	goto	l1731
  1990  0190                     u2350:
  1991  0190  29AC               	goto	l574
  1992  0191                     l1735:
  1993  0191  3001               	movlw	1
  1994  0192  00C4               	movwf	??___xxtofl
  1995  0193  0844               	movf	??___xxtofl,w
  1996  0194  07C9               	addwf	___xxtofl@exp,f
  1997  0195                     l1737:
  1998  0195  3001               	movlw	1
  1999  0196  07CA               	addwf	___xxtofl@arg,f
  2000  0197  3000               	movlw	0
  2001  0198  1803               	skipnc
  2002  0199  3001               	movlw	1
  2003  019A  07CB               	addwf	___xxtofl@arg+1,f
  2004  019B  3000               	movlw	0
  2005  019C  1803               	skipnc
  2006  019D  3001               	movlw	1
  2007  019E  07CC               	addwf	___xxtofl@arg+2,f
  2008  019F  3000               	movlw	0
  2009  01A0  1803               	skipnc
  2010  01A1  3001               	movlw	1
  2011  01A2  07CD               	addwf	___xxtofl@arg+3,f
  2012  01A3                     l1739:
  2013  01A3  3001               	movlw	1
  2014  01A4                     u2365:
  2015  01A4  1003               	clrc
  2016  01A5  0CCD               	rrf	___xxtofl@arg+3,f
  2017  01A6  0CCC               	rrf	___xxtofl@arg+2,f
  2018  01A7  0CCB               	rrf	___xxtofl@arg+1,f
  2019  01A8  0CCA               	rrf	___xxtofl@arg,f
  2020  01A9  3EFF               	addlw	-1
  2021  01AA  1D03               	skipz
  2022  01AB  29A4               	goto	u2365
  2023  01AC                     l574:
  2024  01AC  30FF               	movlw	255
  2025  01AD  054D               	andwf	___xxtofl@arg+3,w
  2026  01AE  1D03               	btfss	3,2
  2027  01AF  29B1               	goto	u2371
  2028  01B0  29B2               	goto	u2370
  2029  01B1                     u2371:
  2030  01B1  2991               	goto	l1735
  2031  01B2                     u2370:
  2032  01B2  29BE               	goto	l1743
  2033  01B3                     l1741:
  2034  01B3  3001               	movlw	1
  2035  01B4  02C9               	subwf	___xxtofl@exp,f
  2036  01B5  3001               	movlw	1
  2037  01B6  00C4               	movwf	??___xxtofl
  2038  01B7                     u2385:
  2039  01B7  1003               	clrc
  2040  01B8  0DCA               	rlf	___xxtofl@arg,f
  2041  01B9  0DCB               	rlf	___xxtofl@arg+1,f
  2042  01BA  0DCC               	rlf	___xxtofl@arg+2,f
  2043  01BB  0DCD               	rlf	___xxtofl@arg+3,f
  2044  01BC  0BC4               	decfsz	??___xxtofl,f
  2045  01BD  29B7               	goto	u2385
  2046  01BE                     l1743:
  2047  01BE  1BCC               	btfsc	___xxtofl@arg+2,7
  2048  01BF  29C1               	goto	u2391
  2049  01C0  29C2               	goto	u2390
  2050  01C1                     u2391:
  2051  01C1  29C8               	goto	l581
  2052  01C2                     u2390:
  2053  01C2                     l1745:
  2054  01C2  3002               	movlw	2
  2055  01C3  0249               	subwf	___xxtofl@exp,w
  2056  01C4  1803               	skipnc
  2057  01C5  29C7               	goto	u2401
  2058  01C6  29C8               	goto	u2400
  2059  01C7                     u2401:
  2060  01C7  29B3               	goto	l1741
  2061  01C8                     u2400:
  2062  01C8                     l581:
  2063  01C8  1849               	btfsc	___xxtofl@exp,0
  2064  01C9  29CB               	goto	u2411
  2065  01CA  29CC               	goto	u2410
  2066  01CB                     u2411:
  2067  01CB  29D4               	goto	l582
  2068  01CC                     u2410:
  2069  01CC                     l1747:
  2070  01CC  30FF               	movlw	255
  2071  01CD  05CA               	andwf	___xxtofl@arg,f
  2072  01CE  30FF               	movlw	255
  2073  01CF  05CB               	andwf	___xxtofl@arg+1,f
  2074  01D0  307F               	movlw	127
  2075  01D1  05CC               	andwf	___xxtofl@arg+2,f
  2076  01D2  30FF               	movlw	255
  2077  01D3  05CD               	andwf	___xxtofl@arg+3,f
  2078  01D4                     l582:
  2079  01D4  1003               	clrc
  2080  01D5  0CC9               	rrf	___xxtofl@exp,f
  2081  01D6                     l1749:
  2082  01D6  0849               	movf	___xxtofl@exp,w
  2083  01D7  00C4               	movwf	??___xxtofl
  2084  01D8  01C5               	clrf	??___xxtofl+1
  2085  01D9  01C6               	clrf	??___xxtofl+2
  2086  01DA  01C7               	clrf	??___xxtofl+3
  2087  01DB  3018               	movlw	24
  2088  01DC                     u2425:
  2089  01DC  1003               	clrc
  2090  01DD  0DC4               	rlf	??___xxtofl,f
  2091  01DE  0DC5               	rlf	??___xxtofl+1,f
  2092  01DF  0DC6               	rlf	??___xxtofl+2,f
  2093  01E0  0DC7               	rlf	??___xxtofl+3,f
  2094  01E1                     u2420:
  2095  01E1  3EFF               	addlw	-1
  2096  01E2  1D03               	skipz
  2097  01E3  29DC               	goto	u2425
  2098  01E4  0844               	movf	??___xxtofl,w
  2099  01E5  04CA               	iorwf	___xxtofl@arg,f
  2100  01E6  0845               	movf	??___xxtofl+1,w
  2101  01E7  04CB               	iorwf	___xxtofl@arg+1,f
  2102  01E8  0846               	movf	??___xxtofl+2,w
  2103  01E9  04CC               	iorwf	___xxtofl@arg+2,f
  2104  01EA  0847               	movf	??___xxtofl+3,w
  2105  01EB  04CD               	iorwf	___xxtofl@arg+3,f
  2106  01EC                     l1751:
  2107  01EC  0848               	movf	___xxtofl@sign,w
  2108  01ED  1903               	btfsc	3,2
  2109  01EE  29F0               	goto	u2431
  2110  01EF  29F1               	goto	u2430
  2111  01F0                     u2431:
  2112  01F0  29F6               	goto	l1757
  2113  01F1                     u2430:
  2114  01F1                     l1753:
  2115  01F1  1FC3               	btfss	___xxtofl@val+3,7
  2116  01F2  29F4               	goto	u2441
  2117  01F3  29F5               	goto	u2440
  2118  01F4                     u2441:
  2119  01F4  29F6               	goto	l1757
  2120  01F5                     u2440:
  2121  01F5                     l1755:
  2122  01F5  17CD               	bsf	___xxtofl@arg+3,7
  2123  01F6                     l1757:
  2124  01F6  084D               	movf	___xxtofl@arg+3,w
  2125  01F7  00C3               	movwf	?___xxtofl+3
  2126  01F8  084C               	movf	___xxtofl@arg+2,w
  2127  01F9  00C2               	movwf	?___xxtofl+2
  2128  01FA  084B               	movf	___xxtofl@arg+1,w
  2129  01FB  00C1               	movwf	?___xxtofl+1
  2130  01FC  084A               	movf	___xxtofl@arg,w
  2131  01FD  00C0               	movwf	?___xxtofl
  2132  01FE                     l570:
  2133  01FE  0008               	return
  2134  01FF                     __end_of___xxtofl:
  2135                           
  2136                           	psect	text6
  2137  0025                     __ptext6:	
  2138 ;; *************** function ___fltol *****************
  2139 ;; Defined at:
  2140 ;;		line 43 in file "C:\Program Files\Microchip\xc8\v2.32\pic\sources\c90\common\fltol.c"
  2141 ;; Parameters:    Size  Location     Type
  2142 ;;  f1              4   21[BANK0 ] unsigned char 
  2143 ;; Auto vars:     Size  Location     Type
  2144 ;;  exp1            1   31[BANK0 ] unsigned char 
  2145 ;;  sign1           1   30[BANK0 ] unsigned char 
  2146 ;; Return value:  Size  Location     Type
  2147 ;;                  4   21[BANK0 ] long 
  2148 ;; Registers used:
  2149 ;;		wreg, status,2, status,0
  2150 ;; Tracked objects:
  2151 ;;		On entry : 0/0
  2152 ;;		On exit  : 0/0
  2153 ;;		Unchanged: 0/0
  2154 ;; Data sizes:     COMMON   BANK0   BANK1   BANK3   BANK2
  2155 ;;      Params:         0       4       0       0       0
  2156 ;;      Locals:         0       2       0       0       0
  2157 ;;      Temps:          0       5       0       0       0
  2158 ;;      Totals:         0      11       0       0       0
  2159 ;;Total ram usage:       11 bytes
  2160 ;; Hardware stack levels used: 1
  2161 ;; This function calls:
  2162 ;;		Nothing
  2163 ;; This function is called by:
  2164 ;;		_main
  2165 ;;		_trunc
  2166 ;; This function uses a non-reentrant model
  2167 ;;
  2168                           
  2169                           
  2170                           ;psect for function ___fltol
  2171  0025                     ___fltol:
  2172  0025                     l1487:	
  2173                           ;incstack = 0
  2174                           ; Regs used in ___fltol: [wreg+status,2+status,0]
  2175                           
  2176  0025  1003               	clrc
  2177  0026  1283               	bcf	3,5	;RP0=0, select bank0
  2178  0027  1303               	bcf	3,6	;RP1=0, select bank0
  2179  0028  0D37               	rlf	___fltol@f1+2,w
  2180  0029  0D38               	rlf	___fltol@f1+3,w
  2181  002A  00B9               	movwf	??___fltol
  2182  002B  0839               	movf	??___fltol,w
  2183  002C  00BF               	movwf	___fltol@exp1
  2184  002D  083F               	movf	___fltol@exp1,w
  2185  002E  1D03               	btfss	3,2
  2186  002F  2831               	goto	u1751
  2187  0030  2832               	goto	u1750
  2188  0031                     u1751:
  2189  0031  283B               	goto	l1493
  2190  0032                     u1750:
  2191  0032                     l1489:
  2192  0032  3000               	movlw	0
  2193  0033  00B8               	movwf	?___fltol+3
  2194  0034  3000               	movlw	0
  2195  0035  00B7               	movwf	?___fltol+2
  2196  0036  3000               	movlw	0
  2197  0037  00B6               	movwf	?___fltol+1
  2198  0038  3000               	movlw	0
  2199  0039  00B5               	movwf	?___fltol
  2200  003A  28A0               	goto	l321
  2201  003B                     l1493:
  2202  003B  0835               	movf	___fltol@f1,w
  2203  003C  00B9               	movwf	??___fltol
  2204  003D  0836               	movf	___fltol@f1+1,w
  2205  003E  00BA               	movwf	??___fltol+1
  2206  003F  0837               	movf	___fltol@f1+2,w
  2207  0040  00BB               	movwf	??___fltol+2
  2208  0041  0838               	movf	___fltol@f1+3,w
  2209  0042  00BC               	movwf	??___fltol+3
  2210  0043  301F               	movlw	31
  2211  0044                     u1765:
  2212  0044  1003               	clrc
  2213  0045  0CBC               	rrf	??___fltol+3,f
  2214  0046  0CBB               	rrf	??___fltol+2,f
  2215  0047  0CBA               	rrf	??___fltol+1,f
  2216  0048  0CB9               	rrf	??___fltol,f
  2217  0049                     u1760:
  2218  0049  3EFF               	addlw	-1
  2219  004A  1D03               	skipz
  2220  004B  2844               	goto	u1765
  2221  004C  0839               	movf	??___fltol,w
  2222  004D  00BD               	movwf	??___fltol+4
  2223  004E  083D               	movf	??___fltol+4,w
  2224  004F  00BE               	movwf	___fltol@sign1
  2225  0050                     l1495:
  2226  0050  17B7               	bsf	___fltol@f1+2,7
  2227  0051                     l1497:
  2228  0051  30FF               	movlw	255
  2229  0052  05B5               	andwf	___fltol@f1,f
  2230  0053  30FF               	movlw	255
  2231  0054  05B6               	andwf	___fltol@f1+1,f
  2232  0055  30FF               	movlw	255
  2233  0056  05B7               	andwf	___fltol@f1+2,f
  2234  0057  3000               	movlw	0
  2235  0058  05B8               	andwf	___fltol@f1+3,f
  2236  0059                     l1499:
  2237  0059  3096               	movlw	150
  2238  005A  02BF               	subwf	___fltol@exp1,f
  2239  005B                     l1501:
  2240  005B  1FBF               	btfss	___fltol@exp1,7
  2241  005C  285E               	goto	u1771
  2242  005D  285F               	goto	u1770
  2243  005E                     u1771:
  2244  005E  2879               	goto	l1511
  2245  005F                     u1770:
  2246  005F                     l1503:
  2247  005F  083F               	movf	___fltol@exp1,w
  2248  0060  3A80               	xorlw	128
  2249  0061  3E97               	addlw	151
  2250  0062  1803               	skipnc
  2251  0063  2865               	goto	u1781
  2252  0064  2866               	goto	u1780
  2253  0065                     u1781:
  2254  0065  2867               	goto	l1509
  2255  0066                     u1780:
  2256  0066  2832               	goto	l1489
  2257  0067                     l1509:
  2258  0067  3001               	movlw	1
  2259  0068                     u1795:
  2260  0068  1003               	clrc
  2261  0069  0CB8               	rrf	___fltol@f1+3,f
  2262  006A  0CB7               	rrf	___fltol@f1+2,f
  2263  006B  0CB6               	rrf	___fltol@f1+1,f
  2264  006C  0CB5               	rrf	___fltol@f1,f
  2265  006D  3EFF               	addlw	-1
  2266  006E  1D03               	skipz
  2267  006F  2868               	goto	u1795
  2268  0070  3001               	movlw	1
  2269  0071  00B9               	movwf	??___fltol
  2270  0072  0839               	movf	??___fltol,w
  2271  0073  07BF               	addwf	___fltol@exp1,f
  2272  0074  1D03               	btfss	3,2
  2273  0075  2877               	goto	u1801
  2274  0076  2878               	goto	u1800
  2275  0077                     u1801:
  2276  0077  2867               	goto	l1509
  2277  0078                     u1800:
  2278  0078  2890               	goto	l1519
  2279  0079                     l1511:
  2280  0079  3020               	movlw	32
  2281  007A  023F               	subwf	___fltol@exp1,w
  2282  007B  1C03               	skipc
  2283  007C  287E               	goto	u1811
  2284  007D  287F               	goto	u1810
  2285  007E                     u1811:
  2286  007E  288B               	goto	l328
  2287  007F                     u1810:
  2288  007F  2832               	goto	l1489
  2289  0080                     l1517:
  2290  0080  3001               	movlw	1
  2291  0081  00B9               	movwf	??___fltol
  2292  0082                     u1825:
  2293  0082  1003               	clrc
  2294  0083  0DB5               	rlf	___fltol@f1,f
  2295  0084  0DB6               	rlf	___fltol@f1+1,f
  2296  0085  0DB7               	rlf	___fltol@f1+2,f
  2297  0086  0DB8               	rlf	___fltol@f1+3,f
  2298  0087  0BB9               	decfsz	??___fltol,f
  2299  0088  2882               	goto	u1825
  2300  0089  3001               	movlw	1
  2301  008A  02BF               	subwf	___fltol@exp1,f
  2302  008B                     l328:
  2303  008B  083F               	movf	___fltol@exp1,w
  2304  008C  1D03               	btfss	3,2
  2305  008D  288F               	goto	u1831
  2306  008E  2890               	goto	u1830
  2307  008F                     u1831:
  2308  008F  2880               	goto	l1517
  2309  0090                     u1830:
  2310  0090                     l1519:
  2311  0090  083E               	movf	___fltol@sign1,w
  2312  0091  1903               	btfsc	3,2
  2313  0092  2894               	goto	u1841
  2314  0093  2895               	goto	u1840
  2315  0094                     u1841:
  2316  0094  28A0               	goto	l331
  2317  0095                     u1840:
  2318  0095                     l1521:
  2319  0095  09B5               	comf	___fltol@f1,f
  2320  0096  09B6               	comf	___fltol@f1+1,f
  2321  0097  09B7               	comf	___fltol@f1+2,f
  2322  0098  09B8               	comf	___fltol@f1+3,f
  2323  0099  0AB5               	incf	___fltol@f1,f
  2324  009A  1903               	skipnz
  2325  009B  0AB6               	incf	___fltol@f1+1,f
  2326  009C  1903               	skipnz
  2327  009D  0AB7               	incf	___fltol@f1+2,f
  2328  009E  1903               	skipnz
  2329  009F  0AB8               	incf	___fltol@f1+3,f
  2330  00A0                     l331:
  2331  00A0                     l321:
  2332  00A0  0008               	return
  2333  00A1                     __end_of___fltol:
  2334                           
  2335                           	psect	text7
  2336  08DF                     __ptext7:	
  2337 ;; *************** function ___flsub *****************
  2338 ;; Defined at:
  2339 ;;		line 242 in file "C:\Program Files\Microchip\xc8\v2.32\pic\sources\c90\common\sprcadd.c"
  2340 ;; Parameters:    Size  Location     Type
  2341 ;;  a               4   57[BANK0 ] long 
  2342 ;;  b               4   61[BANK0 ] long 
  2343 ;; Auto vars:     Size  Location     Type
  2344 ;;		None
  2345 ;; Return value:  Size  Location     Type
  2346 ;;                  4   57[BANK0 ] long 
  2347 ;; Registers used:
  2348 ;;		wreg, status,2, status,0, btemp+1, pclath, cstack
  2349 ;; Tracked objects:
  2350 ;;		On entry : 0/0
  2351 ;;		On exit  : 0/0
  2352 ;;		Unchanged: 0/0
  2353 ;; Data sizes:     COMMON   BANK0   BANK1   BANK3   BANK2
  2354 ;;      Params:         0       8       0       0       0
  2355 ;;      Locals:         0       0       0       0       0
  2356 ;;      Temps:          0       0       0       0       0
  2357 ;;      Totals:         0       8       0       0       0
  2358 ;;Total ram usage:        8 bytes
  2359 ;; Hardware stack levels used: 1
  2360 ;; Hardware stack levels required when called: 1
  2361 ;; This function calls:
  2362 ;;		___fladd
  2363 ;; This function is called by:
  2364 ;;		_round
  2365 ;; This function uses a non-reentrant model
  2366 ;;
  2367                           
  2368                           
  2369                           ;psect for function ___flsub
  2370  08DF                     ___flsub:
  2371  08DF                     l1777:	
  2372                           ;incstack = 0
  2373                           ; Regs used in ___flsub: [wreg+status,2+status,0+btemp+1+pclath+cstack]
  2374                           
  2375  08DF  3080               	movlw	128
  2376  08E0  1283               	bcf	3,5	;RP0=0, select bank0
  2377  08E1  1303               	bcf	3,6	;RP1=0, select bank0
  2378  08E2  06DC               	xorwf	___flsub@a+3,f
  2379  08E3                     l1779:
  2380  08E3  0860               	movf	___flsub@b+3,w
  2381  08E4  00F3               	movwf	___fladd@b+3
  2382  08E5  085F               	movf	___flsub@b+2,w
  2383  08E6  00F2               	movwf	___fladd@b+2
  2384  08E7  085E               	movf	___flsub@b+1,w
  2385  08E8  00F1               	movwf	___fladd@b+1
  2386  08E9  085D               	movf	___flsub@b,w
  2387  08EA  00F0               	movwf	___fladd@b
  2388  08EB  085C               	movf	___flsub@a+3,w
  2389  08EC  00F7               	movwf	___fladd@a+3
  2390  08ED  085B               	movf	___flsub@a+2,w
  2391  08EE  00F6               	movwf	___fladd@a+2
  2392  08EF  085A               	movf	___flsub@a+1,w
  2393  08F0  00F5               	movwf	___fladd@a+1
  2394  08F1  0859               	movf	___flsub@a,w
  2395  08F2  00F4               	movwf	___fladd@a
  2396  08F3  120A  118A  21FF  120A  158A  	fcall	___fladd
  2397  08F8  0873               	movf	?___fladd+3,w
  2398  08F9  1283               	bcf	3,5	;RP0=0, select bank0
  2399  08FA  1303               	bcf	3,6	;RP1=0, select bank0
  2400  08FB  00DC               	movwf	?___flsub+3
  2401  08FC  0872               	movf	?___fladd+2,w
  2402  08FD  00DB               	movwf	?___flsub+2
  2403  08FE  0871               	movf	?___fladd+1,w
  2404  08FF  00DA               	movwf	?___flsub+1
  2405  0900  0870               	movf	?___fladd,w
  2406  0901  00D9               	movwf	?___flsub
  2407  0902                     l474:
  2408  0902  0008               	return
  2409  0903                     __end_of___flsub:
  2410                           
  2411                           	psect	text8
  2412  01FF                     __ptext8:	
  2413 ;; *************** function ___fladd *****************
  2414 ;; Defined at:
  2415 ;;		line 10 in file "C:\Program Files\Microchip\xc8\v2.32\pic\sources\c90\common\sprcadd.c"
  2416 ;; Parameters:    Size  Location     Type
  2417 ;;  b               4    0[COMMON] long 
  2418 ;;  a               4    4[COMMON] long 
  2419 ;; Auto vars:     Size  Location     Type
  2420 ;;  grs             1   11[COMMON] unsigned char 
  2421 ;;  bexp            1   10[COMMON] unsigned char 
  2422 ;;  aexp            1    9[COMMON] unsigned char 
  2423 ;;  signs           1    8[COMMON] unsigned char 
  2424 ;; Return value:  Size  Location     Type
  2425 ;;                  4    0[COMMON] unsigned char 
  2426 ;; Registers used:
  2427 ;;		wreg, status,2, status,0, btemp+1
  2428 ;; Tracked objects:
  2429 ;;		On entry : 0/0
  2430 ;;		On exit  : 0/0
  2431 ;;		Unchanged: 0/0
  2432 ;; Data sizes:     COMMON   BANK0   BANK1   BANK3   BANK2
  2433 ;;      Params:         8       0       0       0       0
  2434 ;;      Locals:         4       0       0       0       0
  2435 ;;      Temps:          0       8       0       0       0
  2436 ;;      Totals:        12       8       0       0       0
  2437 ;;Total ram usage:       20 bytes
  2438 ;; Hardware stack levels used: 1
  2439 ;; This function calls:
  2440 ;;		Nothing
  2441 ;; This function is called by:
  2442 ;;		___flsub
  2443 ;;		_round
  2444 ;; This function uses a non-reentrant model
  2445 ;;
  2446                           
  2447                           
  2448                           ;psect for function ___fladd
  2449  01FF                     ___fladd:
  2450  01FF                     l1523:	
  2451                           ;incstack = 0
  2452                           ; Regs used in ___fladd: [wreg+status,2+status,0+btemp+1]
  2453                           
  2454  01FF  0873               	movf	___fladd@b+3,w
  2455  0200  3980               	andlw	128
  2456  0201  1283               	bcf	3,5	;RP0=0, select bank0
  2457  0202  1303               	bcf	3,6	;RP1=0, select bank0
  2458  0203  00A0               	movwf	??___fladd
  2459  0204  0820               	movf	??___fladd,w
  2460  0205  00F8               	movwf	___fladd@signs
  2461  0206                     l1525:
  2462  0206  0873               	movf	___fladd@b+3,w
  2463  0207  00A0               	movwf	??___fladd
  2464  0208  0720               	addwf	??___fladd,w
  2465  0209  00A1               	movwf	??___fladd+1
  2466  020A  0821               	movf	??___fladd+1,w
  2467  020B  00FA               	movwf	___fladd@bexp
  2468  020C                     l1527:
  2469  020C  1FF2               	btfss	___fladd@b+2,7
  2470  020D  2A0F               	goto	u1851
  2471  020E  2A10               	goto	u1850
  2472  020F                     u1851:
  2473  020F  2A11               	goto	l1531
  2474  0210                     u1850:
  2475  0210                     l1529:
  2476  0210  147A               	bsf	___fladd@bexp,0
  2477  0211                     l1531:
  2478  0211  087A               	movf	___fladd@bexp,w
  2479  0212  1903               	btfsc	3,2
  2480  0213  2A15               	goto	u1861
  2481  0214  2A16               	goto	u1860
  2482  0215                     u1861:
  2483  0215  2A26               	goto	l1541
  2484  0216                     u1860:
  2485  0216                     l1533:
  2486  0216  0A7A               	incf	___fladd@bexp,w
  2487  0217  1D03               	btfss	3,2
  2488  0218  2A1A               	goto	u1871
  2489  0219  2A1B               	goto	u1870
  2490  021A                     u1871:
  2491  021A  2A23               	goto	l1537
  2492  021B                     u1870:
  2493  021B                     l1535:
  2494  021B  3000               	movlw	0
  2495  021C  00F3               	movwf	___fladd@b+3
  2496  021D  3000               	movlw	0
  2497  021E  00F2               	movwf	___fladd@b+2
  2498  021F  3000               	movlw	0
  2499  0220  00F1               	movwf	___fladd@b+1
  2500  0221  3000               	movlw	0
  2501  0222  00F0               	movwf	___fladd@b
  2502  0223                     l1537:
  2503  0223  17F2               	bsf	___fladd@b+2,7
  2504  0224                     l1539:
  2505  0224  01F3               	clrf	___fladd@b+3
  2506  0225  2A2E               	goto	l1543
  2507  0226                     l1541:
  2508  0226  3000               	movlw	0
  2509  0227  00F3               	movwf	___fladd@b+3
  2510  0228  3000               	movlw	0
  2511  0229  00F2               	movwf	___fladd@b+2
  2512  022A  3000               	movlw	0
  2513  022B  00F1               	movwf	___fladd@b+1
  2514  022C  3000               	movlw	0
  2515  022D  00F0               	movwf	___fladd@b
  2516  022E                     l1543:
  2517  022E  0877               	movf	___fladd@a+3,w
  2518  022F  3980               	andlw	128
  2519  0230  00A0               	movwf	??___fladd
  2520  0231  0820               	movf	??___fladd,w
  2521  0232  00F9               	movwf	___fladd@aexp
  2522  0233                     l1545:
  2523  0233  0879               	movf	___fladd@aexp,w
  2524  0234  0678               	xorwf	___fladd@signs,w
  2525  0235  1903               	skipnz
  2526  0236  2A38               	goto	u1881
  2527  0237  2A39               	goto	u1880
  2528  0238                     u1881:
  2529  0238  2A3A               	goto	l1549
  2530  0239                     u1880:
  2531  0239                     l1547:
  2532  0239  1778               	bsf	___fladd@signs,6
  2533  023A                     l1549:
  2534  023A  0877               	movf	___fladd@a+3,w
  2535  023B  00A0               	movwf	??___fladd
  2536  023C  0720               	addwf	??___fladd,w
  2537  023D  00A1               	movwf	??___fladd+1
  2538  023E  0821               	movf	??___fladd+1,w
  2539  023F  00F9               	movwf	___fladd@aexp
  2540  0240                     l1551:
  2541  0240  1FF6               	btfss	___fladd@a+2,7
  2542  0241  2A43               	goto	u1891
  2543  0242  2A44               	goto	u1890
  2544  0243                     u1891:
  2545  0243  2A45               	goto	l1555
  2546  0244                     u1890:
  2547  0244                     l1553:
  2548  0244  1479               	bsf	___fladd@aexp,0
  2549  0245                     l1555:
  2550  0245  0879               	movf	___fladd@aexp,w
  2551  0246  1903               	btfsc	3,2
  2552  0247  2A49               	goto	u1901
  2553  0248  2A4A               	goto	u1900
  2554  0249                     u1901:
  2555  0249  2A5A               	goto	l1565
  2556  024A                     u1900:
  2557  024A                     l1557:
  2558  024A  0A79               	incf	___fladd@aexp,w
  2559  024B  1D03               	btfss	3,2
  2560  024C  2A4E               	goto	u1911
  2561  024D  2A4F               	goto	u1910
  2562  024E                     u1911:
  2563  024E  2A57               	goto	l1561
  2564  024F                     u1910:
  2565  024F                     l1559:
  2566  024F  3000               	movlw	0
  2567  0250  00F7               	movwf	___fladd@a+3
  2568  0251  3000               	movlw	0
  2569  0252  00F6               	movwf	___fladd@a+2
  2570  0253  3000               	movlw	0
  2571  0254  00F5               	movwf	___fladd@a+1
  2572  0255  3000               	movlw	0
  2573  0256  00F4               	movwf	___fladd@a
  2574  0257                     l1561:
  2575  0257  17F6               	bsf	___fladd@a+2,7
  2576  0258                     l1563:
  2577  0258  01F7               	clrf	___fladd@a+3
  2578  0259  2A62               	goto	l428
  2579  025A                     l1565:
  2580  025A  3000               	movlw	0
  2581  025B  00F7               	movwf	___fladd@a+3
  2582  025C  3000               	movlw	0
  2583  025D  00F6               	movwf	___fladd@a+2
  2584  025E  3000               	movlw	0
  2585  025F  00F5               	movwf	___fladd@a+1
  2586  0260  3000               	movlw	0
  2587  0261  00F4               	movwf	___fladd@a
  2588  0262                     l428:
  2589  0262  087A               	movf	___fladd@bexp,w
  2590  0263  0279               	subwf	___fladd@aexp,w
  2591  0264  1803               	skipnc
  2592  0265  2A67               	goto	u1921
  2593  0266  2A68               	goto	u1920
  2594  0267                     u1921:
  2595  0267  2AAC               	goto	l1601
  2596  0268                     u1920:
  2597  0268                     l1567:
  2598  0268  1F78               	btfss	___fladd@signs,6
  2599  0269  2A6B               	goto	u1931
  2600  026A  2A6C               	goto	u1930
  2601  026B                     u1931:
  2602  026B  2A70               	goto	l1571
  2603  026C                     u1930:
  2604  026C                     l1569:
  2605  026C  3080               	movlw	128
  2606  026D  00A0               	movwf	??___fladd
  2607  026E  0820               	movf	??___fladd,w
  2608  026F  06F8               	xorwf	___fladd@signs,f
  2609  0270                     l1571:
  2610  0270  087A               	movf	___fladd@bexp,w
  2611  0271  00A0               	movwf	??___fladd
  2612  0272  0820               	movf	??___fladd,w
  2613  0273  00FB               	movwf	___fladd@grs
  2614  0274                     l1573:
  2615  0274  0879               	movf	___fladd@aexp,w
  2616  0275  00A0               	movwf	??___fladd
  2617  0276  0820               	movf	??___fladd,w
  2618  0277  00FA               	movwf	___fladd@bexp
  2619  0278                     l1575:
  2620  0278  087B               	movf	___fladd@grs,w
  2621  0279  00A0               	movwf	??___fladd
  2622  027A  0820               	movf	??___fladd,w
  2623  027B  00F9               	movwf	___fladd@aexp
  2624  027C                     l1577:
  2625  027C  0870               	movf	___fladd@b,w
  2626  027D  00A0               	movwf	??___fladd
  2627  027E  0820               	movf	??___fladd,w
  2628  027F  00FB               	movwf	___fladd@grs
  2629  0280                     l1579:
  2630  0280  0874               	movf	___fladd@a,w
  2631  0281  00A0               	movwf	??___fladd
  2632  0282  0820               	movf	??___fladd,w
  2633  0283  00F0               	movwf	___fladd@b
  2634  0284                     l1581:
  2635  0284  087B               	movf	___fladd@grs,w
  2636  0285  00A0               	movwf	??___fladd
  2637  0286  0820               	movf	??___fladd,w
  2638  0287  00F4               	movwf	___fladd@a
  2639  0288                     l1583:
  2640  0288  0871               	movf	___fladd@b+1,w
  2641  0289  00A0               	movwf	??___fladd
  2642  028A  0820               	movf	??___fladd,w
  2643  028B  00FB               	movwf	___fladd@grs
  2644  028C                     l1585:
  2645  028C  0875               	movf	___fladd@a+1,w
  2646  028D  00A0               	movwf	??___fladd
  2647  028E  0820               	movf	??___fladd,w
  2648  028F  00F1               	movwf	___fladd@b+1
  2649  0290                     l1587:
  2650  0290  087B               	movf	___fladd@grs,w
  2651  0291  00A0               	movwf	??___fladd
  2652  0292  0820               	movf	??___fladd,w
  2653  0293  00F5               	movwf	___fladd@a+1
  2654  0294                     l1589:
  2655  0294  0872               	movf	___fladd@b+2,w
  2656  0295  00A0               	movwf	??___fladd
  2657  0296  0820               	movf	??___fladd,w
  2658  0297  00FB               	movwf	___fladd@grs
  2659  0298                     l1591:
  2660  0298  0876               	movf	___fladd@a+2,w
  2661  0299  00A0               	movwf	??___fladd
  2662  029A  0820               	movf	??___fladd,w
  2663  029B  00F2               	movwf	___fladd@b+2
  2664  029C                     l1593:
  2665  029C  087B               	movf	___fladd@grs,w
  2666  029D  00A0               	movwf	??___fladd
  2667  029E  0820               	movf	??___fladd,w
  2668  029F  00F6               	movwf	___fladd@a+2
  2669  02A0                     l1595:
  2670  02A0  0873               	movf	___fladd@b+3,w
  2671  02A1  00A0               	movwf	??___fladd
  2672  02A2  0820               	movf	??___fladd,w
  2673  02A3  00FB               	movwf	___fladd@grs
  2674  02A4                     l1597:
  2675  02A4  0877               	movf	___fladd@a+3,w
  2676  02A5  00A0               	movwf	??___fladd
  2677  02A6  0820               	movf	??___fladd,w
  2678  02A7  00F3               	movwf	___fladd@b+3
  2679  02A8                     l1599:
  2680  02A8  087B               	movf	___fladd@grs,w
  2681  02A9  00A0               	movwf	??___fladd
  2682  02AA  0820               	movf	??___fladd,w
  2683  02AB  00F7               	movwf	___fladd@a+3
  2684  02AC                     l1601:
  2685  02AC  01FB               	clrf	___fladd@grs
  2686  02AD                     l1603:
  2687  02AD  0879               	movf	___fladd@aexp,w
  2688  02AE  00A0               	movwf	??___fladd
  2689  02AF  01A1               	clrf	??___fladd+1
  2690  02B0  0821               	movf	??___fladd+1,w
  2691  02B1  00A3               	movwf	??___fladd+3
  2692  02B2  087A               	movf	___fladd@bexp,w
  2693  02B3  0220               	subwf	??___fladd,w
  2694  02B4  00A2               	movwf	??___fladd+2
  2695  02B5  1C03               	skipc
  2696  02B6  03A3               	decf	??___fladd+3,f
  2697  02B7  0823               	movf	??___fladd+3,w
  2698  02B8  3A80               	xorlw	128
  2699  02B9  00FF               	movwf	btemp+1
  2700  02BA  3080               	movlw	128
  2701  02BB  027F               	subwf	btemp+1,w
  2702  02BC  1D03               	skipz
  2703  02BD  2AC0               	goto	u1945
  2704  02BE  301A               	movlw	26
  2705  02BF  0222               	subwf	??___fladd+2,w
  2706  02C0                     u1945:
  2707  02C0  1C03               	skipc
  2708  02C1  2AC3               	goto	u1941
  2709  02C2  2AC4               	goto	u1940
  2710  02C3                     u1941:
  2711  02C3  2B05               	goto	l1619
  2712  02C4                     u1940:
  2713  02C4                     l1605:
  2714  02C4  0873               	movf	___fladd@b+3,w
  2715  02C5  0472               	iorwf	___fladd@b+2,w
  2716  02C6  0471               	iorwf	___fladd@b+1,w
  2717  02C7  0470               	iorwf	___fladd@b,w
  2718  02C8  1D03               	skipz
  2719  02C9  2ACB               	goto	u1951
  2720  02CA  2ACD               	goto	u1950
  2721  02CB                     u1951:
  2722  02CB  3001               	movlw	1
  2723  02CC  2ACE               	goto	u1960
  2724  02CD                     u1950:
  2725  02CD  3000               	movlw	0
  2726  02CE                     u1960:
  2727  02CE  1283               	bcf	3,5	;RP0=0, select bank0
  2728  02CF  1303               	bcf	3,6	;RP1=0, select bank0
  2729  02D0  00A0               	movwf	??___fladd
  2730  02D1  0820               	movf	??___fladd,w
  2731  02D2  00FB               	movwf	___fladd@grs
  2732  02D3  3000               	movlw	0
  2733  02D4  00F3               	movwf	___fladd@b+3
  2734  02D5  3000               	movlw	0
  2735  02D6  00F2               	movwf	___fladd@b+2
  2736  02D7  3000               	movlw	0
  2737  02D8  00F1               	movwf	___fladd@b+1
  2738  02D9  3000               	movlw	0
  2739  02DA  00F0               	movwf	___fladd@b
  2740  02DB  0879               	movf	___fladd@aexp,w
  2741  02DC  00A0               	movwf	??___fladd
  2742  02DD  0820               	movf	??___fladd,w
  2743  02DE  00FA               	movwf	___fladd@bexp
  2744  02DF  2B0B               	goto	l432
  2745  02E0                     l434:
  2746  02E0  1C7B               	btfss	___fladd@grs,0
  2747  02E1  2AE3               	goto	u1971
  2748  02E2  2AE4               	goto	u1970
  2749  02E3                     u1971:
  2750  02E3  2AEF               	goto	l1609
  2751  02E4                     u1970:
  2752  02E4                     l1607:
  2753  02E4  087B               	movf	___fladd@grs,w
  2754  02E5  1283               	bcf	3,5	;RP0=0, select bank0
  2755  02E6  1303               	bcf	3,6	;RP1=0, select bank0
  2756  02E7  00A0               	movwf	??___fladd
  2757  02E8  1003               	clrc
  2758  02E9  0C20               	rrf	??___fladd,w
  2759  02EA  3801               	iorlw	1
  2760  02EB  00A1               	movwf	??___fladd+1
  2761  02EC  0821               	movf	??___fladd+1,w
  2762  02ED  00FB               	movwf	___fladd@grs
  2763  02EE  2AF1               	goto	l1611
  2764  02EF                     l1609:
  2765  02EF  1003               	clrc
  2766  02F0  0CFB               	rrf	___fladd@grs,f
  2767  02F1                     l1611:
  2768  02F1  1C70               	btfss	___fladd@b,0
  2769  02F2  2AF4               	goto	u1981
  2770  02F3  2AF5               	goto	u1980
  2771  02F4                     u1981:
  2772  02F4  2AF6               	goto	l1615
  2773  02F5                     u1980:
  2774  02F5                     l1613:
  2775  02F5  17FB               	bsf	___fladd@grs,7
  2776  02F6                     l1615:
  2777  02F6  3001               	movlw	1
  2778  02F7  1283               	bcf	3,5	;RP0=0, select bank0
  2779  02F8  1303               	bcf	3,6	;RP1=0, select bank0
  2780  02F9  00A0               	movwf	??___fladd
  2781  02FA                     u1995:
  2782  02FA  0D73               	rlf	___fladd@b+3,w
  2783  02FB  0CF3               	rrf	___fladd@b+3,f
  2784  02FC  0CF2               	rrf	___fladd@b+2,f
  2785  02FD  0CF1               	rrf	___fladd@b+1,f
  2786  02FE  0CF0               	rrf	___fladd@b,f
  2787  02FF  0BA0               	decfsz	??___fladd& (0+127),f
  2788  0300  2AFA               	goto	u1995
  2789  0301                     l1617:
  2790  0301  3001               	movlw	1
  2791  0302  00A0               	movwf	??___fladd
  2792  0303  0820               	movf	??___fladd,w
  2793  0304  07FA               	addwf	___fladd@bexp,f
  2794  0305                     l1619:
  2795  0305  0879               	movf	___fladd@aexp,w
  2796  0306  027A               	subwf	___fladd@bexp,w
  2797  0307  1C03               	skipc
  2798  0308  2B0A               	goto	u2001
  2799  0309  2B0B               	goto	u2000
  2800  030A                     u2001:
  2801  030A  2AE0               	goto	l434
  2802  030B                     u2000:
  2803  030B                     l432:
  2804  030B  1B78               	btfsc	___fladd@signs,6
  2805  030C  2B0E               	goto	u2011
  2806  030D  2B0F               	goto	u2010
  2807  030E                     u2011:
  2808  030E  2B5E               	goto	l1645
  2809  030F                     u2010:
  2810  030F                     l1621:
  2811  030F  087A               	movf	___fladd@bexp,w
  2812  0310  1D03               	btfss	3,2
  2813  0311  2B13               	goto	u2021
  2814  0312  2B14               	goto	u2020
  2815  0313                     u2021:
  2816  0313  2B1D               	goto	l1627
  2817  0314                     u2020:
  2818  0314                     l1623:
  2819  0314  3000               	movlw	0
  2820  0315  00F3               	movwf	?___fladd+3
  2821  0316  3000               	movlw	0
  2822  0317  00F2               	movwf	?___fladd+2
  2823  0318  3000               	movlw	0
  2824  0319  00F1               	movwf	?___fladd+1
  2825  031A  3000               	movlw	0
  2826  031B  00F0               	movwf	?___fladd
  2827  031C  2C96               	goto	l441
  2828  031D                     l1627:
  2829  031D  0874               	movf	___fladd@a,w
  2830  031E  07F0               	addwf	___fladd@b,f
  2831  031F  0875               	movf	___fladd@a+1,w
  2832  0320  1103               	clrz
  2833  0321  1803               	skipnc
  2834  0322  3E01               	addlw	1
  2835  0323  1903               	skipnz
  2836  0324  2B26               	goto	u2031
  2837  0325  07F1               	addwf	___fladd@b+1,f
  2838  0326                     u2031:
  2839  0326  0876               	movf	___fladd@a+2,w
  2840  0327  1103               	clrz
  2841  0328  1803               	skipnc
  2842  0329  3E01               	addlw	1
  2843  032A  1903               	skipnz
  2844  032B  2B2D               	goto	u2032
  2845  032C  07F2               	addwf	___fladd@b+2,f
  2846  032D                     u2032:
  2847  032D  0877               	movf	___fladd@a+3,w
  2848  032E  1103               	clrz
  2849  032F  1803               	skipnc
  2850  0330  3E01               	addlw	1
  2851  0331  1903               	skipnz
  2852  0332  2B34               	goto	u2033
  2853  0333  07F3               	addwf	___fladd@b+3,f
  2854  0334                     u2033:
  2855  0334                     l1629:
  2856  0334  1C73               	btfss	___fladd@b+3,0
  2857  0335  2B37               	goto	u2041
  2858  0336  2B38               	goto	u2040
  2859  0337                     u2041:
  2860  0337  2C16               	goto	l1679
  2861  0338                     u2040:
  2862  0338                     l1631:
  2863  0338  1C7B               	btfss	___fladd@grs,0
  2864  0339  2B3B               	goto	u2051
  2865  033A  2B3C               	goto	u2050
  2866  033B                     u2051:
  2867  033B  2B47               	goto	l1635
  2868  033C                     u2050:
  2869  033C                     l1633:
  2870  033C  087B               	movf	___fladd@grs,w
  2871  033D  1283               	bcf	3,5	;RP0=0, select bank0
  2872  033E  1303               	bcf	3,6	;RP1=0, select bank0
  2873  033F  00A0               	movwf	??___fladd
  2874  0340  1003               	clrc
  2875  0341  0C20               	rrf	??___fladd,w
  2876  0342  3801               	iorlw	1
  2877  0343  00A1               	movwf	??___fladd+1
  2878  0344  0821               	movf	??___fladd+1,w
  2879  0345  00FB               	movwf	___fladd@grs
  2880  0346  2B49               	goto	l1637
  2881  0347                     l1635:
  2882  0347  1003               	clrc
  2883  0348  0CFB               	rrf	___fladd@grs,f
  2884  0349                     l1637:
  2885  0349  1C70               	btfss	___fladd@b,0
  2886  034A  2B4C               	goto	u2061
  2887  034B  2B4D               	goto	u2060
  2888  034C                     u2061:
  2889  034C  2B4E               	goto	l1641
  2890  034D                     u2060:
  2891  034D                     l1639:
  2892  034D  17FB               	bsf	___fladd@grs,7
  2893  034E                     l1641:
  2894  034E  3001               	movlw	1
  2895  034F  1283               	bcf	3,5	;RP0=0, select bank0
  2896  0350  1303               	bcf	3,6	;RP1=0, select bank0
  2897  0351  00A0               	movwf	??___fladd
  2898  0352                     u2075:
  2899  0352  0D73               	rlf	___fladd@b+3,w
  2900  0353  0CF3               	rrf	___fladd@b+3,f
  2901  0354  0CF2               	rrf	___fladd@b+2,f
  2902  0355  0CF1               	rrf	___fladd@b+1,f
  2903  0356  0CF0               	rrf	___fladd@b,f
  2904  0357  0BA0               	decfsz	??___fladd& (0+127),f
  2905  0358  2B52               	goto	u2075
  2906  0359                     l1643:
  2907  0359  3001               	movlw	1
  2908  035A  00A0               	movwf	??___fladd
  2909  035B  0820               	movf	??___fladd,w
  2910  035C  07FA               	addwf	___fladd@bexp,f
  2911  035D  2C16               	goto	l1679
  2912  035E                     l1645:
  2913  035E  0873               	movf	___fladd@b+3,w
  2914  035F  3A80               	xorlw	128
  2915  0360  00FF               	movwf	btemp+1
  2916  0361  0877               	movf	___fladd@a+3,w
  2917  0362  3A80               	xorlw	128
  2918  0363  027F               	subwf	btemp+1,w
  2919  0364  1D03               	skipz
  2920  0365  2B70               	goto	u2083
  2921  0366  0876               	movf	___fladd@a+2,w
  2922  0367  0272               	subwf	___fladd@b+2,w
  2923  0368  1D03               	skipz
  2924  0369  2B70               	goto	u2083
  2925  036A  0875               	movf	___fladd@a+1,w
  2926  036B  0271               	subwf	___fladd@b+1,w
  2927  036C  1D03               	skipz
  2928  036D  2B70               	goto	u2083
  2929  036E  0874               	movf	___fladd@a,w
  2930  036F  0270               	subwf	___fladd@b,w
  2931  0370                     u2083:
  2932  0370  1803               	skipnc
  2933  0371  2B73               	goto	u2081
  2934  0372  2B74               	goto	u2080
  2935  0373                     u2081:
  2936  0373  2BCE               	goto	l1655
  2937  0374                     u2080:
  2938  0374                     l1647:
  2939  0374  30FF               	movlw	255
  2940  0375  1283               	bcf	3,5	;RP0=0, select bank0
  2941  0376  1303               	bcf	3,6	;RP1=0, select bank0
  2942  0377  00A0               	movwf	??___fladd
  2943  0378  30FF               	movlw	255
  2944  0379  00A1               	movwf	??___fladd+1
  2945  037A  30FF               	movlw	255
  2946  037B  00A2               	movwf	??___fladd+2
  2947  037C  30FF               	movlw	255
  2948  037D  00A3               	movwf	??___fladd+3
  2949  037E  0874               	movf	___fladd@a,w
  2950  037F  00A4               	movwf	??___fladd+4
  2951  0380  0875               	movf	___fladd@a+1,w
  2952  0381  00A5               	movwf	??___fladd+5
  2953  0382  0876               	movf	___fladd@a+2,w
  2954  0383  00A6               	movwf	??___fladd+6
  2955  0384  0877               	movf	___fladd@a+3,w
  2956  0385  00A7               	movwf	??___fladd+7
  2957  0386  0870               	movf	___fladd@b,w
  2958  0387  02A4               	subwf	??___fladd+4,f
  2959  0388  0871               	movf	___fladd@b+1,w
  2960  0389  1C03               	skipc
  2961  038A  0F71               	incfsz	___fladd@b+1,w
  2962  038B  2B8D               	goto	u2091
  2963  038C  2B8E               	goto	u2092
  2964  038D                     u2091:
  2965  038D  02A5               	subwf	??___fladd+5,f
  2966  038E                     u2092:
  2967  038E  0872               	movf	___fladd@b+2,w
  2968  038F  1C03               	skipc
  2969  0390  0F72               	incfsz	___fladd@b+2,w
  2970  0391  2B93               	goto	u2093
  2971  0392  2B94               	goto	u2094
  2972  0393                     u2093:
  2973  0393  02A6               	subwf	??___fladd+6,f
  2974  0394                     u2094:
  2975  0394  0873               	movf	___fladd@b+3,w
  2976  0395  1C03               	skipc
  2977  0396  0F73               	incfsz	___fladd@b+3,w
  2978  0397  2B99               	goto	u2095
  2979  0398  2B9A               	goto	u2096
  2980  0399                     u2095:
  2981  0399  02A7               	subwf	??___fladd+7,f
  2982  039A                     u2096:
  2983  039A  0824               	movf	??___fladd+4,w
  2984  039B  07A0               	addwf	??___fladd,f
  2985  039C  0825               	movf	??___fladd+5,w
  2986  039D  1803               	skipnc
  2987  039E  0F25               	incfsz	??___fladd+5,w
  2988  039F  2BA1               	goto	u2100
  2989  03A0  2BA2               	goto	u2101
  2990  03A1                     u2100:
  2991  03A1  07A1               	addwf	??___fladd+1,f
  2992  03A2                     u2101:
  2993  03A2  0826               	movf	??___fladd+6,w
  2994  03A3  1803               	skipnc
  2995  03A4  0F26               	incfsz	??___fladd+6,w
  2996  03A5  2BA7               	goto	u2102
  2997  03A6  2BA8               	goto	u2103
  2998  03A7                     u2102:
  2999  03A7  07A2               	addwf	??___fladd+2,f
  3000  03A8                     u2103:
  3001  03A8  0827               	movf	??___fladd+7,w
  3002  03A9  1803               	skipnc
  3003  03AA  0A27               	incf	??___fladd+7,w
  3004  03AB  07A3               	addwf	??___fladd+3,f
  3005  03AC  0823               	movf	??___fladd+3,w
  3006  03AD  00F3               	movwf	___fladd@b+3
  3007  03AE  0822               	movf	??___fladd+2,w
  3008  03AF  00F2               	movwf	___fladd@b+2
  3009  03B0  0821               	movf	??___fladd+1,w
  3010  03B1  00F1               	movwf	___fladd@b+1
  3011  03B2  0820               	movf	??___fladd,w
  3012  03B3  00F0               	movwf	___fladd@b
  3013  03B4                     l1649:
  3014  03B4  3080               	movlw	128
  3015  03B5  00A0               	movwf	??___fladd
  3016  03B6  0820               	movf	??___fladd,w
  3017  03B7  06F8               	xorwf	___fladd@signs,f
  3018  03B8  09FB               	comf	___fladd@grs,f
  3019  03B9  0AFB               	incf	___fladd@grs,f
  3020  03BA                     l1651:
  3021  03BA  087B               	movf	___fladd@grs,w
  3022  03BB  1D03               	btfss	3,2
  3023  03BC  2BBE               	goto	u2111
  3024  03BD  2BBF               	goto	u2110
  3025  03BE                     u2111:
  3026  03BE  2BDC               	goto	l449
  3027  03BF                     u2110:
  3028  03BF                     l1653:
  3029  03BF  3001               	movlw	1
  3030  03C0  07F0               	addwf	___fladd@b,f
  3031  03C1  3000               	movlw	0
  3032  03C2  1803               	skipnc
  3033  03C3  3001               	movlw	1
  3034  03C4  07F1               	addwf	___fladd@b+1,f
  3035  03C5  3000               	movlw	0
  3036  03C6  1803               	skipnc
  3037  03C7  3001               	movlw	1
  3038  03C8  07F2               	addwf	___fladd@b+2,f
  3039  03C9  3000               	movlw	0
  3040  03CA  1803               	skipnc
  3041  03CB  3001               	movlw	1
  3042  03CC  07F3               	addwf	___fladd@b+3,f
  3043  03CD  2BDC               	goto	l449
  3044  03CE                     l1655:
  3045  03CE  0874               	movf	___fladd@a,w
  3046  03CF  02F0               	subwf	___fladd@b,f
  3047  03D0  0875               	movf	___fladd@a+1,w
  3048  03D1  1C03               	skipc
  3049  03D2  0F75               	incfsz	___fladd@a+1,w
  3050  03D3  02F1               	subwf	___fladd@b+1,f
  3051  03D4  0876               	movf	___fladd@a+2,w
  3052  03D5  1C03               	skipc
  3053  03D6  0F76               	incfsz	___fladd@a+2,w
  3054  03D7  02F2               	subwf	___fladd@b+2,f
  3055  03D8  0877               	movf	___fladd@a+3,w
  3056  03D9  1C03               	skipc
  3057  03DA  0F77               	incfsz	___fladd@a+3,w
  3058  03DB  02F3               	subwf	___fladd@b+3,f
  3059  03DC                     l449:
  3060  03DC  0873               	movf	___fladd@b+3,w
  3061  03DD  0472               	iorwf	___fladd@b+2,w
  3062  03DE  0471               	iorwf	___fladd@b+1,w
  3063  03DF  0470               	iorwf	___fladd@b,w
  3064  03E0  1D03               	skipz
  3065  03E1  2BE3               	goto	u2121
  3066  03E2  2BE4               	goto	u2120
  3067  03E3                     u2121:
  3068  03E3  2C12               	goto	l1677
  3069  03E4                     u2120:
  3070  03E4                     l1657:
  3071  03E4  087B               	movf	___fladd@grs,w
  3072  03E5  1D03               	btfss	3,2
  3073  03E6  2BE8               	goto	u2131
  3074  03E7  2BE9               	goto	u2130
  3075  03E8                     u2131:
  3076  03E8  2C12               	goto	l1677
  3077  03E9                     u2130:
  3078  03E9                     l1659:
  3079  03E9  3000               	movlw	0
  3080  03EA  00F3               	movwf	?___fladd+3
  3081  03EB  3000               	movlw	0
  3082  03EC  00F2               	movwf	?___fladd+2
  3083  03ED  3000               	movlw	0
  3084  03EE  00F1               	movwf	?___fladd+1
  3085  03EF  3000               	movlw	0
  3086  03F0  00F0               	movwf	?___fladd
  3087  03F1  2C96               	goto	l441
  3088  03F2                     l1663:
  3089  03F2  3001               	movlw	1
  3090  03F3  1283               	bcf	3,5	;RP0=0, select bank0
  3091  03F4  1303               	bcf	3,6	;RP1=0, select bank0
  3092  03F5  00A0               	movwf	??___fladd
  3093  03F6                     u2145:
  3094  03F6  1003               	clrc
  3095  03F7  0DF0               	rlf	___fladd@b,f
  3096  03F8  0DF1               	rlf	___fladd@b+1,f
  3097  03F9  0DF2               	rlf	___fladd@b+2,f
  3098  03FA  0DF3               	rlf	___fladd@b+3,f
  3099  03FB  0BA0               	decfsz	??___fladd,f
  3100  03FC  2BF6               	goto	u2145
  3101  03FD                     l1665:
  3102  03FD  1FFB               	btfss	___fladd@grs,7
  3103  03FE  2C00               	goto	u2151
  3104  03FF  2C01               	goto	u2150
  3105  0400                     u2151:
  3106  0400  2C02               	goto	l453
  3107  0401                     u2150:
  3108  0401                     l1667:
  3109  0401  1470               	bsf	___fladd@b,0
  3110  0402                     l453:
  3111  0402  1C7B               	btfss	___fladd@grs,0
  3112  0403  2C05               	goto	u2161
  3113  0404  2C06               	goto	u2160
  3114  0405                     u2161:
  3115  0405  2C09               	goto	l1671
  3116  0406                     u2160:
  3117  0406                     l1669:
  3118  0406  1403               	setc
  3119  0407  0DFB               	rlf	___fladd@grs,f
  3120  0408  2C0B               	goto	l1673
  3121  0409                     l1671:
  3122  0409  1003               	clrc
  3123  040A  0DFB               	rlf	___fladd@grs,f
  3124  040B                     l1673:
  3125  040B  087A               	movf	___fladd@bexp,w
  3126  040C  1903               	btfsc	3,2
  3127  040D  2C0F               	goto	u2171
  3128  040E  2C10               	goto	u2170
  3129  040F                     u2171:
  3130  040F  2C12               	goto	l1677
  3131  0410                     u2170:
  3132  0410                     l1675:
  3133  0410  3001               	movlw	1
  3134  0411  02FA               	subwf	___fladd@bexp,f
  3135  0412                     l1677:
  3136  0412  1FF2               	btfss	___fladd@b+2,7
  3137  0413  2C15               	goto	u2181
  3138  0414  2C16               	goto	u2180
  3139  0415                     u2181:
  3140  0415  2BF2               	goto	l1663
  3141  0416                     u2180:
  3142  0416                     l1679:
  3143  0416  01F9               	clrf	___fladd@aexp
  3144  0417                     l1681:
  3145  0417  1FFB               	btfss	___fladd@grs,7
  3146  0418  2C1A               	goto	u2191
  3147  0419  2C1B               	goto	u2190
  3148  041A                     u2191:
  3149  041A  2C29               	goto	l1689
  3150  041B                     u2190:
  3151  041B                     l1683:
  3152  041B  087B               	movf	___fladd@grs,w
  3153  041C  397F               	andlw	127
  3154  041D  1903               	btfsc	3,2
  3155  041E  2C20               	goto	u2201
  3156  041F  2C21               	goto	u2200
  3157  0420                     u2201:
  3158  0420  2C24               	goto	l459
  3159  0421                     u2200:
  3160  0421                     l1685:
  3161  0421  01F9               	clrf	___fladd@aexp
  3162  0422  0AF9               	incf	___fladd@aexp,f
  3163  0423  2C29               	goto	l1689
  3164  0424                     l459:
  3165  0424  1C70               	btfss	___fladd@b,0
  3166  0425  2C27               	goto	u2211
  3167  0426  2C28               	goto	u2210
  3168  0427                     u2211:
  3169  0427  2C29               	goto	l1689
  3170  0428                     u2210:
  3171  0428  2C21               	goto	l1685
  3172  0429                     l1689:
  3173  0429  0879               	movf	___fladd@aexp,w
  3174  042A  1903               	btfsc	3,2
  3175  042B  2C2D               	goto	u2221
  3176  042C  2C2E               	goto	u2220
  3177  042D                     u2221:
  3178  042D  2C64               	goto	l462
  3179  042E                     u2220:
  3180  042E                     l1691:
  3181  042E  3001               	movlw	1
  3182  042F  07F0               	addwf	___fladd@b,f
  3183  0430  3000               	movlw	0
  3184  0431  1803               	skipnc
  3185  0432  3001               	movlw	1
  3186  0433  07F1               	addwf	___fladd@b+1,f
  3187  0434  3000               	movlw	0
  3188  0435  1803               	skipnc
  3189  0436  3001               	movlw	1
  3190  0437  07F2               	addwf	___fladd@b+2,f
  3191  0438  3000               	movlw	0
  3192  0439  1803               	skipnc
  3193  043A  3001               	movlw	1
  3194  043B  07F3               	addwf	___fladd@b+3,f
  3195  043C                     l1693:
  3196  043C  1C73               	btfss	___fladd@b+3,0
  3197  043D  2C3F               	goto	u2231
  3198  043E  2C40               	goto	u2230
  3199  043F                     u2231:
  3200  043F  2C64               	goto	l462
  3201  0440                     u2230:
  3202  0440                     l1695:
  3203  0440  0870               	movf	___fladd@b,w
  3204  0441  1283               	bcf	3,5	;RP0=0, select bank0
  3205  0442  1303               	bcf	3,6	;RP1=0, select bank0
  3206  0443  00A0               	movwf	??___fladd
  3207  0444  0871               	movf	___fladd@b+1,w
  3208  0445  00A1               	movwf	??___fladd+1
  3209  0446  0872               	movf	___fladd@b+2,w
  3210  0447  00A2               	movwf	??___fladd+2
  3211  0448  0873               	movf	___fladd@b+3,w
  3212  0449  00A3               	movwf	??___fladd+3
  3213  044A  3001               	movlw	1
  3214  044B  00A4               	movwf	??___fladd+4
  3215  044C                     u2245:
  3216  044C  0D23               	rlf	??___fladd+3,w
  3217  044D  0CA3               	rrf	??___fladd+3,f
  3218  044E  0CA2               	rrf	??___fladd+2,f
  3219  044F  0CA1               	rrf	??___fladd+1,f
  3220  0450  0CA0               	rrf	??___fladd,f
  3221  0451                     u2240:
  3222  0451  0BA4               	decfsz	??___fladd+4,f
  3223  0452  2C4C               	goto	u2245
  3224  0453  0823               	movf	??___fladd+3,w
  3225  0454  00F3               	movwf	___fladd@b+3
  3226  0455  0822               	movf	??___fladd+2,w
  3227  0456  00F2               	movwf	___fladd@b+2
  3228  0457  0821               	movf	??___fladd+1,w
  3229  0458  00F1               	movwf	___fladd@b+1
  3230  0459  0820               	movf	??___fladd,w
  3231  045A  00F0               	movwf	___fladd@b
  3232  045B  0A7A               	incf	___fladd@bexp,w
  3233  045C  1903               	btfsc	3,2
  3234  045D  2C5F               	goto	u2251
  3235  045E  2C60               	goto	u2250
  3236  045F                     u2251:
  3237  045F  2C64               	goto	l462
  3238  0460                     u2250:
  3239  0460                     l1697:
  3240  0460  3001               	movlw	1
  3241  0461  00A0               	movwf	??___fladd
  3242  0462  0820               	movf	??___fladd,w
  3243  0463  07FA               	addwf	___fladd@bexp,f
  3244  0464                     l462:
  3245  0464  0A7A               	incf	___fladd@bexp,w
  3246  0465  1903               	btfsc	3,2
  3247  0466  2C68               	goto	u2261
  3248  0467  2C69               	goto	u2260
  3249  0468                     u2261:
  3250  0468  2C6E               	goto	l1701
  3251  0469                     u2260:
  3252  0469                     l1699:
  3253  0469  087A               	movf	___fladd@bexp,w
  3254  046A  1D03               	btfss	3,2
  3255  046B  2C6D               	goto	u2271
  3256  046C  2C6E               	goto	u2270
  3257  046D                     u2271:
  3258  046D  2C7C               	goto	l1707
  3259  046E                     u2270:
  3260  046E                     l1701:
  3261  046E  3000               	movlw	0
  3262  046F  00F3               	movwf	___fladd@b+3
  3263  0470  3000               	movlw	0
  3264  0471  00F2               	movwf	___fladd@b+2
  3265  0472  3000               	movlw	0
  3266  0473  00F1               	movwf	___fladd@b+1
  3267  0474  3000               	movlw	0
  3268  0475  00F0               	movwf	___fladd@b
  3269  0476                     l1703:
  3270  0476  087A               	movf	___fladd@bexp,w
  3271  0477  1D03               	btfss	3,2
  3272  0478  2C7A               	goto	u2281
  3273  0479  2C7B               	goto	u2280
  3274  047A                     u2281:
  3275  047A  2C7C               	goto	l1707
  3276  047B                     u2280:
  3277  047B                     l1705:
  3278  047B  01F8               	clrf	___fladd@signs
  3279  047C                     l1707:
  3280  047C  1C7A               	btfss	___fladd@bexp,0
  3281  047D  2C7F               	goto	u2291
  3282  047E  2C80               	goto	u2290
  3283  047F                     u2291:
  3284  047F  2C82               	goto	l1711
  3285  0480                     u2290:
  3286  0480                     l1709:
  3287  0480  17F2               	bsf	___fladd@b+2,7
  3288  0481  2C88               	goto	l470
  3289  0482                     l1711:
  3290  0482  307F               	movlw	127
  3291  0483  1283               	bcf	3,5	;RP0=0, select bank0
  3292  0484  1303               	bcf	3,6	;RP1=0, select bank0
  3293  0485  00A0               	movwf	??___fladd
  3294  0486  0820               	movf	??___fladd,w
  3295  0487  05F2               	andwf	___fladd@b+2,f
  3296  0488                     l470:
  3297  0488  087A               	movf	___fladd@bexp,w
  3298  0489  1283               	bcf	3,5	;RP0=0, select bank0
  3299  048A  1303               	bcf	3,6	;RP1=0, select bank0
  3300  048B  00A0               	movwf	??___fladd
  3301  048C  1003               	clrc
  3302  048D  0C20               	rrf	??___fladd,w
  3303  048E  00A1               	movwf	??___fladd+1
  3304  048F  0821               	movf	??___fladd+1,w
  3305  0490  00F3               	movwf	___fladd@b+3
  3306  0491                     l1713:
  3307  0491  1FF8               	btfss	___fladd@signs,7
  3308  0492  2C94               	goto	u2301
  3309  0493  2C95               	goto	u2300
  3310  0494                     u2301:
  3311  0494  2C96               	goto	l471
  3312  0495                     u2300:
  3313  0495                     l1715:
  3314  0495  17F3               	bsf	___fladd@b+3,7
  3315  0496                     l471:
  3316  0496                     l441:
  3317  0496  0008               	return
  3318  0497                     __end_of___fladd:
  3319                           
  3320                           	psect	text9
  3321  0903                     __ptext9:	
  3322 ;; *************** function ___wmul *****************
  3323 ;; Defined at:
  3324 ;;		line 15 in file "C:\Program Files\Microchip\xc8\v2.32\pic\sources\c90\common\Umul16.c"
  3325 ;; Parameters:    Size  Location     Type
  3326 ;;  multiplier      2    0[COMMON] unsigned int 
  3327 ;;  multiplicand    2    2[COMMON] unsigned int 
  3328 ;; Auto vars:     Size  Location     Type
  3329 ;;  product         2    4[COMMON] unsigned int 
  3330 ;; Return value:  Size  Location     Type
  3331 ;;                  2    0[COMMON] unsigned int 
  3332 ;; Registers used:
  3333 ;;		wreg, status,2, status,0
  3334 ;; Tracked objects:
  3335 ;;		On entry : 0/0
  3336 ;;		On exit  : 0/0
  3337 ;;		Unchanged: 0/0
  3338 ;; Data sizes:     COMMON   BANK0   BANK1   BANK3   BANK2
  3339 ;;      Params:         4       0       0       0       0
  3340 ;;      Locals:         2       0       0       0       0
  3341 ;;      Temps:          0       0       0       0       0
  3342 ;;      Totals:         6       0       0       0       0
  3343 ;;Total ram usage:        6 bytes
  3344 ;; Hardware stack levels used: 1
  3345 ;; This function calls:
  3346 ;;		Nothing
  3347 ;; This function is called by:
  3348 ;;		_main
  3349 ;; This function uses a non-reentrant model
  3350 ;;
  3351                           
  3352                           
  3353                           ;psect for function ___wmul
  3354  0903                     ___wmul:
  3355  0903                     l1823:	
  3356                           ;incstack = 0
  3357                           ; Regs used in ___wmul: [wreg+status,2+status,0]
  3358                           
  3359  0903  01F4               	clrf	___wmul@product
  3360  0904  01F5               	clrf	___wmul@product+1
  3361  0905                     l1825:
  3362  0905  1C70               	btfss	___wmul@multiplier,0
  3363  0906  2908               	goto	u2511
  3364  0907  2909               	goto	u2510
  3365  0908                     u2511:
  3366  0908  290F               	goto	l135
  3367  0909                     u2510:
  3368  0909                     l1827:
  3369  0909  0872               	movf	___wmul@multiplicand,w
  3370  090A  07F4               	addwf	___wmul@product,f
  3371  090B  1803               	skipnc
  3372  090C  0AF5               	incf	___wmul@product+1,f
  3373  090D  0873               	movf	___wmul@multiplicand+1,w
  3374  090E  07F5               	addwf	___wmul@product+1,f
  3375  090F                     l135:
  3376  090F  3001               	movlw	1
  3377  0910                     u2525:
  3378  0910  1003               	clrc
  3379  0911  0DF2               	rlf	___wmul@multiplicand,f
  3380  0912  0DF3               	rlf	___wmul@multiplicand+1,f
  3381  0913  3EFF               	addlw	-1
  3382  0914  1D03               	skipz
  3383  0915  2910               	goto	u2525
  3384  0916                     l1829:
  3385  0916  3001               	movlw	1
  3386  0917                     u2535:
  3387  0917  1003               	clrc
  3388  0918  0CF1               	rrf	___wmul@multiplier+1,f
  3389  0919  0CF0               	rrf	___wmul@multiplier,f
  3390  091A  3EFF               	addlw	-1
  3391  091B  1D03               	skipz
  3392  091C  2917               	goto	u2535
  3393  091D                     l1831:
  3394  091D  0870               	movf	___wmul@multiplier,w
  3395  091E  0471               	iorwf	___wmul@multiplier+1,w
  3396  091F  1D03               	btfss	3,2
  3397  0920  2922               	goto	u2541
  3398  0921  2923               	goto	u2540
  3399  0922                     u2541:
  3400  0922  2905               	goto	l1825
  3401  0923                     u2540:
  3402  0923                     l1833:
  3403  0923  0875               	movf	___wmul@product+1,w
  3404  0924  00F1               	movwf	?___wmul+1
  3405  0925  0874               	movf	___wmul@product,w
  3406  0926  00F0               	movwf	?___wmul
  3407  0927                     l137:
  3408  0927  0008               	return
  3409  0928                     __end_of___wmul:
  3410                           
  3411                           	psect	text10
  3412  094F                     __ptext10:	
  3413 ;; *************** function ___lwmod *****************
  3414 ;; Defined at:
  3415 ;;		line 5 in file "C:\Program Files\Microchip\xc8\v2.32\pic\sources\c90\common\lwmod.c"
  3416 ;; Parameters:    Size  Location     Type
  3417 ;;  divisor         2    0[COMMON] unsigned int 
  3418 ;;  dividend        2    2[COMMON] unsigned int 
  3419 ;; Auto vars:     Size  Location     Type
  3420 ;;  counter         1    5[COMMON] unsigned char 
  3421 ;; Return value:  Size  Location     Type
  3422 ;;                  2    0[COMMON] unsigned int 
  3423 ;; Registers used:
  3424 ;;		wreg, status,2, status,0
  3425 ;; Tracked objects:
  3426 ;;		On entry : 0/0
  3427 ;;		On exit  : 0/0
  3428 ;;		Unchanged: 0/0
  3429 ;; Data sizes:     COMMON   BANK0   BANK1   BANK3   BANK2
  3430 ;;      Params:         4       0       0       0       0
  3431 ;;      Locals:         1       0       0       0       0
  3432 ;;      Temps:          1       0       0       0       0
  3433 ;;      Totals:         6       0       0       0       0
  3434 ;;Total ram usage:        6 bytes
  3435 ;; Hardware stack levels used: 1
  3436 ;; This function calls:
  3437 ;;		Nothing
  3438 ;; This function is called by:
  3439 ;;		_main
  3440 ;; This function uses a non-reentrant model
  3441 ;;
  3442                           
  3443                           
  3444                           ;psect for function ___lwmod
  3445  094F                     ___lwmod:
  3446  094F                     l1883:	
  3447                           ;incstack = 0
  3448                           ; Regs used in ___lwmod: [wreg+status,2+status,0]
  3449                           
  3450  094F  0870               	movf	___lwmod@divisor,w
  3451  0950  0471               	iorwf	___lwmod@divisor+1,w
  3452  0951  1903               	btfsc	3,2
  3453  0952  2954               	goto	u2691
  3454  0953  2955               	goto	u2690
  3455  0954                     u2691:
  3456  0954  2984               	goto	l1901
  3457  0955                     u2690:
  3458  0955                     l1885:
  3459  0955  01F5               	clrf	___lwmod@counter
  3460  0956  0AF5               	incf	___lwmod@counter,f
  3461  0957  2963               	goto	l1891
  3462  0958                     l1887:
  3463  0958  3001               	movlw	1
  3464  0959                     u2705:
  3465  0959  1003               	clrc
  3466  095A  0DF0               	rlf	___lwmod@divisor,f
  3467  095B  0DF1               	rlf	___lwmod@divisor+1,f
  3468  095C  3EFF               	addlw	-1
  3469  095D  1D03               	skipz
  3470  095E  2959               	goto	u2705
  3471  095F                     l1889:
  3472  095F  3001               	movlw	1
  3473  0960  00F4               	movwf	??___lwmod
  3474  0961  0874               	movf	??___lwmod,w
  3475  0962  07F5               	addwf	___lwmod@counter,f
  3476  0963                     l1891:
  3477  0963  1FF1               	btfss	___lwmod@divisor+1,7
  3478  0964  2966               	goto	u2711
  3479  0965  2967               	goto	u2710
  3480  0966                     u2711:
  3481  0966  2958               	goto	l1887
  3482  0967                     u2710:
  3483  0967                     l1893:
  3484  0967  0871               	movf	___lwmod@divisor+1,w
  3485  0968  0273               	subwf	___lwmod@dividend+1,w
  3486  0969  1D03               	skipz
  3487  096A  296D               	goto	u2725
  3488  096B  0870               	movf	___lwmod@divisor,w
  3489  096C  0272               	subwf	___lwmod@dividend,w
  3490  096D                     u2725:
  3491  096D  1C03               	skipc
  3492  096E  2970               	goto	u2721
  3493  096F  2971               	goto	u2720
  3494  0970                     u2721:
  3495  0970  2977               	goto	l1897
  3496  0971                     u2720:
  3497  0971                     l1895:
  3498  0971  0870               	movf	___lwmod@divisor,w
  3499  0972  02F2               	subwf	___lwmod@dividend,f
  3500  0973  0871               	movf	___lwmod@divisor+1,w
  3501  0974  1C03               	skipc
  3502  0975  03F3               	decf	___lwmod@dividend+1,f
  3503  0976  02F3               	subwf	___lwmod@dividend+1,f
  3504  0977                     l1897:
  3505  0977  3001               	movlw	1
  3506  0978                     u2735:
  3507  0978  1003               	clrc
  3508  0979  0CF1               	rrf	___lwmod@divisor+1,f
  3509  097A  0CF0               	rrf	___lwmod@divisor,f
  3510  097B  3EFF               	addlw	-1
  3511  097C  1D03               	skipz
  3512  097D  2978               	goto	u2735
  3513  097E                     l1899:
  3514  097E  3001               	movlw	1
  3515  097F  02F5               	subwf	___lwmod@counter,f
  3516  0980  1D03               	btfss	3,2
  3517  0981  2983               	goto	u2741
  3518  0982  2984               	goto	u2740
  3519  0983                     u2741:
  3520  0983  2967               	goto	l1893
  3521  0984                     u2740:
  3522  0984                     l1901:
  3523  0984  0873               	movf	___lwmod@dividend+1,w
  3524  0985  00F1               	movwf	?___lwmod+1
  3525  0986  0872               	movf	___lwmod@dividend,w
  3526  0987  00F0               	movwf	?___lwmod
  3527  0988                     l417:
  3528  0988  0008               	return
  3529  0989                     __end_of___lwmod:
  3530                           
  3531                           	psect	text11
  3532  0989                     __ptext11:	
  3533 ;; *************** function ___lwdiv *****************
  3534 ;; Defined at:
  3535 ;;		line 5 in file "C:\Program Files\Microchip\xc8\v2.32\pic\sources\c90\common\lwdiv.c"
  3536 ;; Parameters:    Size  Location     Type
  3537 ;;  divisor         2    6[COMMON] unsigned int 
  3538 ;;  dividend        2    8[COMMON] unsigned int 
  3539 ;; Auto vars:     Size  Location     Type
  3540 ;;  quotient        2   11[COMMON] unsigned int 
  3541 ;;  counter         1   13[COMMON] unsigned char 
  3542 ;; Return value:  Size  Location     Type
  3543 ;;                  2    6[COMMON] unsigned int 
  3544 ;; Registers used:
  3545 ;;		wreg, status,2, status,0
  3546 ;; Tracked objects:
  3547 ;;		On entry : 0/0
  3548 ;;		On exit  : 0/0
  3549 ;;		Unchanged: 0/0
  3550 ;; Data sizes:     COMMON   BANK0   BANK1   BANK3   BANK2
  3551 ;;      Params:         4       0       0       0       0
  3552 ;;      Locals:         3       0       0       0       0
  3553 ;;      Temps:          1       0       0       0       0
  3554 ;;      Totals:         8       0       0       0       0
  3555 ;;Total ram usage:        8 bytes
  3556 ;; Hardware stack levels used: 1
  3557 ;; This function calls:
  3558 ;;		Nothing
  3559 ;; This function is called by:
  3560 ;;		_main
  3561 ;; This function uses a non-reentrant model
  3562 ;;
  3563                           
  3564                           
  3565                           ;psect for function ___lwdiv
  3566  0989                     ___lwdiv:
  3567  0989                     l1857:	
  3568                           ;incstack = 0
  3569                           ; Regs used in ___lwdiv: [wreg+status,2+status,0]
  3570                           
  3571  0989  01FB               	clrf	___lwdiv@quotient
  3572  098A  01FC               	clrf	___lwdiv@quotient+1
  3573  098B                     l1859:
  3574  098B  0876               	movf	___lwdiv@divisor,w
  3575  098C  0477               	iorwf	___lwdiv@divisor+1,w
  3576  098D  1903               	btfsc	3,2
  3577  098E  2990               	goto	u2621
  3578  098F  2991               	goto	u2620
  3579  0990                     u2621:
  3580  0990  29C8               	goto	l1879
  3581  0991                     u2620:
  3582  0991                     l1861:
  3583  0991  01FD               	clrf	___lwdiv@counter
  3584  0992  0AFD               	incf	___lwdiv@counter,f
  3585  0993  299F               	goto	l1867
  3586  0994                     l1863:
  3587  0994  3001               	movlw	1
  3588  0995                     u2635:
  3589  0995  1003               	clrc
  3590  0996  0DF6               	rlf	___lwdiv@divisor,f
  3591  0997  0DF7               	rlf	___lwdiv@divisor+1,f
  3592  0998  3EFF               	addlw	-1
  3593  0999  1D03               	skipz
  3594  099A  2995               	goto	u2635
  3595  099B                     l1865:
  3596  099B  3001               	movlw	1
  3597  099C  00FA               	movwf	??___lwdiv
  3598  099D  087A               	movf	??___lwdiv,w
  3599  099E  07FD               	addwf	___lwdiv@counter,f
  3600  099F                     l1867:
  3601  099F  1FF7               	btfss	___lwdiv@divisor+1,7
  3602  09A0  29A2               	goto	u2641
  3603  09A1  29A3               	goto	u2640
  3604  09A2                     u2641:
  3605  09A2  2994               	goto	l1863
  3606  09A3                     u2640:
  3607  09A3                     l1869:
  3608  09A3  3001               	movlw	1
  3609  09A4                     u2655:
  3610  09A4  1003               	clrc
  3611  09A5  0DFB               	rlf	___lwdiv@quotient,f
  3612  09A6  0DFC               	rlf	___lwdiv@quotient+1,f
  3613  09A7  3EFF               	addlw	-1
  3614  09A8  1D03               	skipz
  3615  09A9  29A4               	goto	u2655
  3616  09AA  0877               	movf	___lwdiv@divisor+1,w
  3617  09AB  0279               	subwf	___lwdiv@dividend+1,w
  3618  09AC  1D03               	skipz
  3619  09AD  29B0               	goto	u2665
  3620  09AE  0876               	movf	___lwdiv@divisor,w
  3621  09AF  0278               	subwf	___lwdiv@dividend,w
  3622  09B0                     u2665:
  3623  09B0  1C03               	skipc
  3624  09B1  29B3               	goto	u2661
  3625  09B2  29B4               	goto	u2660
  3626  09B3                     u2661:
  3627  09B3  29BB               	goto	l1875
  3628  09B4                     u2660:
  3629  09B4                     l1871:
  3630  09B4  0876               	movf	___lwdiv@divisor,w
  3631  09B5  02F8               	subwf	___lwdiv@dividend,f
  3632  09B6  0877               	movf	___lwdiv@divisor+1,w
  3633  09B7  1C03               	skipc
  3634  09B8  03F9               	decf	___lwdiv@dividend+1,f
  3635  09B9  02F9               	subwf	___lwdiv@dividend+1,f
  3636  09BA                     l1873:
  3637  09BA  147B               	bsf	___lwdiv@quotient,0
  3638  09BB                     l1875:
  3639  09BB  3001               	movlw	1
  3640  09BC                     u2675:
  3641  09BC  1003               	clrc
  3642  09BD  0CF7               	rrf	___lwdiv@divisor+1,f
  3643  09BE  0CF6               	rrf	___lwdiv@divisor,f
  3644  09BF  3EFF               	addlw	-1
  3645  09C0  1D03               	skipz
  3646  09C1  29BC               	goto	u2675
  3647  09C2                     l1877:
  3648  09C2  3001               	movlw	1
  3649  09C3  02FD               	subwf	___lwdiv@counter,f
  3650  09C4  1D03               	btfss	3,2
  3651  09C5  29C7               	goto	u2681
  3652  09C6  29C8               	goto	u2680
  3653  09C7                     u2681:
  3654  09C7  29A3               	goto	l1869
  3655  09C8                     u2680:
  3656  09C8                     l1879:
  3657  09C8  087C               	movf	___lwdiv@quotient+1,w
  3658  09C9  00F7               	movwf	?___lwdiv+1
  3659  09CA  087B               	movf	___lwdiv@quotient,w
  3660  09CB  00F6               	movwf	?___lwdiv
  3661  09CC                     l407:
  3662  09CC  0008               	return
  3663  09CD                     __end_of___lwdiv:
  3664                           
  3665                           	psect	text12
  3666  0497                     __ptext12:	
  3667 ;; *************** function ___flmul *****************
  3668 ;; Defined at:
  3669 ;;		line 8 in file "C:\Program Files\Microchip\xc8\v2.32\pic\sources\c90\common\sprcmul.c"
  3670 ;; Parameters:    Size  Location     Type
  3671 ;;  b               4    0[BANK0 ] unsigned int 
  3672 ;;  a               4    4[BANK0 ] unsigned int 
  3673 ;; Auto vars:     Size  Location     Type
  3674 ;;  prod            4   15[BANK0 ] struct .
  3675 ;;  grs             4    9[BANK0 ] unsigned long 
  3676 ;;  temp            2   19[BANK0 ] struct .
  3677 ;;  bexp            1   14[BANK0 ] unsigned char 
  3678 ;;  aexp            1   13[BANK0 ] unsigned char 
  3679 ;;  sign            1    8[BANK0 ] unsigned char 
  3680 ;; Return value:  Size  Location     Type
  3681 ;;                  4    0[BANK0 ] unsigned char 
  3682 ;; Registers used:
  3683 ;;		wreg, status,2, status,0, btemp+1, pclath, cstack
  3684 ;; Tracked objects:
  3685 ;;		On entry : 0/0
  3686 ;;		On exit  : 0/0
  3687 ;;		Unchanged: 0/0
  3688 ;; Data sizes:     COMMON   BANK0   BANK1   BANK3   BANK2
  3689 ;;      Params:         0       8       0       0       0
  3690 ;;      Locals:         0      13       0       0       0
  3691 ;;      Temps:          5       0       0       0       0
  3692 ;;      Totals:         5      21       0       0       0
  3693 ;;Total ram usage:       26 bytes
  3694 ;; Hardware stack levels used: 1
  3695 ;; Hardware stack levels required when called: 1
  3696 ;; This function calls:
  3697 ;;		__Umul8_16
  3698 ;; This function is called by:
  3699 ;;		_main
  3700 ;; This function uses a non-reentrant model
  3701 ;;
  3702                           
  3703                           
  3704                           ;psect for function ___flmul
  3705  0497                     ___flmul:
  3706  0497                     l2047:	
  3707                           ;incstack = 0
  3708                           ; Regs used in ___flmul: [wreg+status,2+status,0+btemp+1+pclath+cstack]
  3709                           
  3710  0497  1283               	bcf	3,5	;RP0=0, select bank0
  3711  0498  1303               	bcf	3,6	;RP1=0, select bank0
  3712  0499  0823               	movf	___flmul@b+3,w
  3713  049A  3980               	andlw	128
  3714  049B  00F9               	movwf	??___flmul
  3715  049C  0879               	movf	??___flmul,w
  3716  049D  00A8               	movwf	___flmul@sign
  3717  049E                     l2049:
  3718  049E  0823               	movf	___flmul@b+3,w
  3719  049F  00F9               	movwf	??___flmul
  3720  04A0  0779               	addwf	??___flmul,w
  3721  04A1  00FA               	movwf	??___flmul+1
  3722  04A2  087A               	movf	??___flmul+1,w
  3723  04A3  00AE               	movwf	___flmul@bexp
  3724  04A4                     l2051:
  3725  04A4  1FA2               	btfss	___flmul@b+2,7
  3726  04A5  2CA7               	goto	u3041
  3727  04A6  2CA8               	goto	u3040
  3728  04A7                     u3041:
  3729  04A7  2CA9               	goto	l2055
  3730  04A8                     u3040:
  3731  04A8                     l2053:
  3732  04A8  142E               	bsf	___flmul@bexp,0
  3733  04A9                     l2055:
  3734  04A9  082E               	movf	___flmul@bexp,w
  3735  04AA  1903               	btfsc	3,2
  3736  04AB  2CAD               	goto	u3051
  3737  04AC  2CAE               	goto	u3050
  3738  04AD                     u3051:
  3739  04AD  2CBD               	goto	l2063
  3740  04AE                     u3050:
  3741  04AE                     l2057:
  3742  04AE  0A2E               	incf	___flmul@bexp,w
  3743  04AF  1D03               	btfss	3,2
  3744  04B0  2CB2               	goto	u3061
  3745  04B1  2CB3               	goto	u3060
  3746  04B2                     u3061:
  3747  04B2  2CBB               	goto	l2061
  3748  04B3                     u3060:
  3749  04B3                     l2059:
  3750  04B3  3000               	movlw	0
  3751  04B4  00A3               	movwf	___flmul@b+3
  3752  04B5  3000               	movlw	0
  3753  04B6  00A2               	movwf	___flmul@b+2
  3754  04B7  3000               	movlw	0
  3755  04B8  00A1               	movwf	___flmul@b+1
  3756  04B9  3000               	movlw	0
  3757  04BA  00A0               	movwf	___flmul@b
  3758  04BB                     l2061:
  3759  04BB  17A2               	bsf	___flmul@b+2,7
  3760  04BC  2CC5               	goto	l2065
  3761  04BD                     l2063:
  3762  04BD  3000               	movlw	0
  3763  04BE  00A3               	movwf	___flmul@b+3
  3764  04BF  3000               	movlw	0
  3765  04C0  00A2               	movwf	___flmul@b+2
  3766  04C1  3000               	movlw	0
  3767  04C2  00A1               	movwf	___flmul@b+1
  3768  04C3  3000               	movlw	0
  3769  04C4  00A0               	movwf	___flmul@b
  3770  04C5                     l2065:
  3771  04C5  0827               	movf	___flmul@a+3,w
  3772  04C6  3980               	andlw	128
  3773  04C7  00F9               	movwf	??___flmul
  3774  04C8  0879               	movf	??___flmul,w
  3775  04C9  06A8               	xorwf	___flmul@sign,f
  3776  04CA                     l2067:
  3777  04CA  0827               	movf	___flmul@a+3,w
  3778  04CB  00F9               	movwf	??___flmul
  3779  04CC  0779               	addwf	??___flmul,w
  3780  04CD  00FA               	movwf	??___flmul+1
  3781  04CE  087A               	movf	??___flmul+1,w
  3782  04CF  00AD               	movwf	___flmul@aexp
  3783  04D0                     l2069:
  3784  04D0  1FA6               	btfss	___flmul@a+2,7
  3785  04D1  2CD3               	goto	u3071
  3786  04D2  2CD4               	goto	u3070
  3787  04D3                     u3071:
  3788  04D3  2CD5               	goto	l2073
  3789  04D4                     u3070:
  3790  04D4                     l2071:
  3791  04D4  142D               	bsf	___flmul@aexp,0
  3792  04D5                     l2073:
  3793  04D5  082D               	movf	___flmul@aexp,w
  3794  04D6  1903               	btfsc	3,2
  3795  04D7  2CD9               	goto	u3081
  3796  04D8  2CDA               	goto	u3080
  3797  04D9                     u3081:
  3798  04D9  2CE9               	goto	l2081
  3799  04DA                     u3080:
  3800  04DA                     l2075:
  3801  04DA  0A2D               	incf	___flmul@aexp,w
  3802  04DB  1D03               	btfss	3,2
  3803  04DC  2CDE               	goto	u3091
  3804  04DD  2CDF               	goto	u3090
  3805  04DE                     u3091:
  3806  04DE  2CE7               	goto	l2079
  3807  04DF                     u3090:
  3808  04DF                     l2077:
  3809  04DF  3000               	movlw	0
  3810  04E0  00A7               	movwf	___flmul@a+3
  3811  04E1  3000               	movlw	0
  3812  04E2  00A6               	movwf	___flmul@a+2
  3813  04E3  3000               	movlw	0
  3814  04E4  00A5               	movwf	___flmul@a+1
  3815  04E5  3000               	movlw	0
  3816  04E6  00A4               	movwf	___flmul@a
  3817  04E7                     l2079:
  3818  04E7  17A6               	bsf	___flmul@a+2,7
  3819  04E8  2CF1               	goto	l2083
  3820  04E9                     l2081:
  3821  04E9  3000               	movlw	0
  3822  04EA  00A7               	movwf	___flmul@a+3
  3823  04EB  3000               	movlw	0
  3824  04EC  00A6               	movwf	___flmul@a+2
  3825  04ED  3000               	movlw	0
  3826  04EE  00A5               	movwf	___flmul@a+1
  3827  04EF  3000               	movlw	0
  3828  04F0  00A4               	movwf	___flmul@a
  3829  04F1                     l2083:
  3830  04F1  082D               	movf	___flmul@aexp,w
  3831  04F2  1903               	btfsc	3,2
  3832  04F3  2CF5               	goto	u3101
  3833  04F4  2CF6               	goto	u3100
  3834  04F5                     u3101:
  3835  04F5  2CFB               	goto	l2087
  3836  04F6                     u3100:
  3837  04F6                     l2085:
  3838  04F6  082E               	movf	___flmul@bexp,w
  3839  04F7  1D03               	btfss	3,2
  3840  04F8  2CFA               	goto	u3111
  3841  04F9  2CFB               	goto	u3110
  3842  04FA                     u3111:
  3843  04FA  2D04               	goto	l2091
  3844  04FB                     u3110:
  3845  04FB                     l2087:
  3846  04FB  3000               	movlw	0
  3847  04FC  00A3               	movwf	?___flmul+3
  3848  04FD  3000               	movlw	0
  3849  04FE  00A2               	movwf	?___flmul+2
  3850  04FF  3000               	movlw	0
  3851  0500  00A1               	movwf	?___flmul+1
  3852  0501  3000               	movlw	0
  3853  0502  00A0               	movwf	?___flmul
  3854  0503  2FF7               	goto	l524
  3855  0504                     l2091:
  3856  0504  0820               	movf	___flmul@b,w
  3857  0505  00F9               	movwf	??___flmul
  3858  0506  0879               	movf	??___flmul,w
  3859  0507  00F0               	movwf	__Umul8_16@multiplicand
  3860  0508  0826               	movf	___flmul@a+2,w
  3861  0509  120A  158A  2128  120A  118A  	fcall	__Umul8_16
  3862  050E  0871               	movf	?__Umul8_16+1,w
  3863  050F  1283               	bcf	3,5	;RP0=0, select bank0
  3864  0510  1303               	bcf	3,6	;RP1=0, select bank0
  3865  0511  00B4               	movwf	___flmul@temp+1
  3866  0512  0870               	movf	?__Umul8_16,w
  3867  0513  00B3               	movwf	___flmul@temp
  3868  0514                     l2093:
  3869  0514  0833               	movf	___flmul@temp,w
  3870  0515  00F9               	movwf	??___flmul
  3871  0516  01FA               	clrf	??___flmul+1
  3872  0517  01FB               	clrf	??___flmul+2
  3873  0518  01FC               	clrf	??___flmul+3
  3874  0519  087C               	movf	??___flmul+3,w
  3875  051A  00AC               	movwf	___flmul@grs+3
  3876  051B  087B               	movf	??___flmul+2,w
  3877  051C  00AB               	movwf	___flmul@grs+2
  3878  051D  087A               	movf	??___flmul+1,w
  3879  051E  00AA               	movwf	___flmul@grs+1
  3880  051F  0879               	movf	??___flmul,w
  3881  0520  00A9               	movwf	___flmul@grs
  3882  0521                     l2095:
  3883  0521  0834               	movf	___flmul@temp+1,w
  3884  0522  00F9               	movwf	??___flmul
  3885  0523  01FA               	clrf	??___flmul+1
  3886  0524  01FB               	clrf	??___flmul+2
  3887  0525  01FC               	clrf	??___flmul+3
  3888  0526  087C               	movf	??___flmul+3,w
  3889  0527  00B2               	movwf	___flmul@prod+3
  3890  0528  087B               	movf	??___flmul+2,w
  3891  0529  00B1               	movwf	___flmul@prod+2
  3892  052A  087A               	movf	??___flmul+1,w
  3893  052B  00B0               	movwf	___flmul@prod+1
  3894  052C  0879               	movf	??___flmul,w
  3895  052D  00AF               	movwf	___flmul@prod
  3896  052E  0821               	movf	___flmul@b+1,w
  3897  052F  00F9               	movwf	??___flmul
  3898  0530  0879               	movf	??___flmul,w
  3899  0531  00F0               	movwf	__Umul8_16@multiplicand
  3900  0532  0825               	movf	___flmul@a+1,w
  3901  0533  120A  158A  2128  120A  118A  	fcall	__Umul8_16
  3902  0538  0871               	movf	?__Umul8_16+1,w
  3903  0539  1283               	bcf	3,5	;RP0=0, select bank0
  3904  053A  1303               	bcf	3,6	;RP1=0, select bank0
  3905  053B  00B4               	movwf	___flmul@temp+1
  3906  053C  0870               	movf	?__Umul8_16,w
  3907  053D  00B3               	movwf	___flmul@temp
  3908  053E                     l2097:
  3909  053E  0833               	movf	___flmul@temp,w
  3910  053F  00F9               	movwf	??___flmul
  3911  0540  01FA               	clrf	??___flmul+1
  3912  0541  01FB               	clrf	??___flmul+2
  3913  0542  01FC               	clrf	??___flmul+3
  3914  0543  0879               	movf	??___flmul,w
  3915  0544  07A9               	addwf	___flmul@grs,f
  3916  0545  087A               	movf	??___flmul+1,w
  3917  0546  1103               	clrz
  3918  0547  1803               	skipnc
  3919  0548  3E01               	addlw	1
  3920  0549  1903               	skipnz
  3921  054A  2D4C               	goto	u3121
  3922  054B  07AA               	addwf	___flmul@grs+1,f
  3923  054C                     u3121:
  3924  054C  087B               	movf	??___flmul+2,w
  3925  054D  1103               	clrz
  3926  054E  1803               	skipnc
  3927  054F  3E01               	addlw	1
  3928  0550  1903               	skipnz
  3929  0551  2D53               	goto	u3122
  3930  0552  07AB               	addwf	___flmul@grs+2,f
  3931  0553                     u3122:
  3932  0553  087C               	movf	??___flmul+3,w
  3933  0554  1103               	clrz
  3934  0555  1803               	skipnc
  3935  0556  3E01               	addlw	1
  3936  0557  1903               	skipnz
  3937  0558  2D5A               	goto	u3123
  3938  0559  07AC               	addwf	___flmul@grs+3,f
  3939  055A                     u3123:
  3940  055A                     l2099:
  3941  055A  0834               	movf	___flmul@temp+1,w
  3942  055B  00F9               	movwf	??___flmul
  3943  055C  01FA               	clrf	??___flmul+1
  3944  055D  01FB               	clrf	??___flmul+2
  3945  055E  01FC               	clrf	??___flmul+3
  3946  055F  0879               	movf	??___flmul,w
  3947  0560  07AF               	addwf	___flmul@prod,f
  3948  0561  087A               	movf	??___flmul+1,w
  3949  0562  1103               	clrz
  3950  0563  1803               	skipnc
  3951  0564  3E01               	addlw	1
  3952  0565  1903               	skipnz
  3953  0566  2D68               	goto	u3131
  3954  0567  07B0               	addwf	___flmul@prod+1,f
  3955  0568                     u3131:
  3956  0568  087B               	movf	??___flmul+2,w
  3957  0569  1103               	clrz
  3958  056A  1803               	skipnc
  3959  056B  3E01               	addlw	1
  3960  056C  1903               	skipnz
  3961  056D  2D6F               	goto	u3132
  3962  056E  07B1               	addwf	___flmul@prod+2,f
  3963  056F                     u3132:
  3964  056F  087C               	movf	??___flmul+3,w
  3965  0570  1103               	clrz
  3966  0571  1803               	skipnc
  3967  0572  3E01               	addlw	1
  3968  0573  1903               	skipnz
  3969  0574  2D76               	goto	u3133
  3970  0575  07B2               	addwf	___flmul@prod+3,f
  3971  0576                     u3133:
  3972  0576  0822               	movf	___flmul@b+2,w
  3973  0577  00F9               	movwf	??___flmul
  3974  0578  0879               	movf	??___flmul,w
  3975  0579  00F0               	movwf	__Umul8_16@multiplicand
  3976  057A  0824               	movf	___flmul@a,w
  3977  057B  120A  158A  2128  120A  118A  	fcall	__Umul8_16
  3978  0580  0871               	movf	?__Umul8_16+1,w
  3979  0581  1283               	bcf	3,5	;RP0=0, select bank0
  3980  0582  1303               	bcf	3,6	;RP1=0, select bank0
  3981  0583  00B4               	movwf	___flmul@temp+1
  3982  0584  0870               	movf	?__Umul8_16,w
  3983  0585  00B3               	movwf	___flmul@temp
  3984  0586                     l2101:
  3985  0586  0833               	movf	___flmul@temp,w
  3986  0587  00F9               	movwf	??___flmul
  3987  0588  01FA               	clrf	??___flmul+1
  3988  0589  01FB               	clrf	??___flmul+2
  3989  058A  01FC               	clrf	??___flmul+3
  3990  058B  0879               	movf	??___flmul,w
  3991  058C  07A9               	addwf	___flmul@grs,f
  3992  058D  087A               	movf	??___flmul+1,w
  3993  058E  1103               	clrz
  3994  058F  1803               	skipnc
  3995  0590  3E01               	addlw	1
  3996  0591  1903               	skipnz
  3997  0592  2D94               	goto	u3141
  3998  0593  07AA               	addwf	___flmul@grs+1,f
  3999  0594                     u3141:
  4000  0594  087B               	movf	??___flmul+2,w
  4001  0595  1103               	clrz
  4002  0596  1803               	skipnc
  4003  0597  3E01               	addlw	1
  4004  0598  1903               	skipnz
  4005  0599  2D9B               	goto	u3142
  4006  059A  07AB               	addwf	___flmul@grs+2,f
  4007  059B                     u3142:
  4008  059B  087C               	movf	??___flmul+3,w
  4009  059C  1103               	clrz
  4010  059D  1803               	skipnc
  4011  059E  3E01               	addlw	1
  4012  059F  1903               	skipnz
  4013  05A0  2DA2               	goto	u3143
  4014  05A1  07AC               	addwf	___flmul@grs+3,f
  4015  05A2                     u3143:
  4016  05A2                     l2103:
  4017  05A2  0834               	movf	___flmul@temp+1,w
  4018  05A3  00F9               	movwf	??___flmul
  4019  05A4  01FA               	clrf	??___flmul+1
  4020  05A5  01FB               	clrf	??___flmul+2
  4021  05A6  01FC               	clrf	??___flmul+3
  4022  05A7  0879               	movf	??___flmul,w
  4023  05A8  07AF               	addwf	___flmul@prod,f
  4024  05A9  087A               	movf	??___flmul+1,w
  4025  05AA  1103               	clrz
  4026  05AB  1803               	skipnc
  4027  05AC  3E01               	addlw	1
  4028  05AD  1903               	skipnz
  4029  05AE  2DB0               	goto	u3151
  4030  05AF  07B0               	addwf	___flmul@prod+1,f
  4031  05B0                     u3151:
  4032  05B0  087B               	movf	??___flmul+2,w
  4033  05B1  1103               	clrz
  4034  05B2  1803               	skipnc
  4035  05B3  3E01               	addlw	1
  4036  05B4  1903               	skipnz
  4037  05B5  2DB7               	goto	u3152
  4038  05B6  07B1               	addwf	___flmul@prod+2,f
  4039  05B7                     u3152:
  4040  05B7  087C               	movf	??___flmul+3,w
  4041  05B8  1103               	clrz
  4042  05B9  1803               	skipnc
  4043  05BA  3E01               	addlw	1
  4044  05BB  1903               	skipnz
  4045  05BC  2DBE               	goto	u3153
  4046  05BD  07B2               	addwf	___flmul@prod+3,f
  4047  05BE                     u3153:
  4048  05BE                     l2105:
  4049  05BE  3008               	movlw	8
  4050  05BF  00F9               	movwf	??___flmul
  4051  05C0                     u3165:
  4052  05C0  1003               	clrc
  4053  05C1  0DA9               	rlf	___flmul@grs,f
  4054  05C2  0DAA               	rlf	___flmul@grs+1,f
  4055  05C3  0DAB               	rlf	___flmul@grs+2,f
  4056  05C4  0DAC               	rlf	___flmul@grs+3,f
  4057  05C5  0BF9               	decfsz	??___flmul,f
  4058  05C6  2DC0               	goto	u3165
  4059  05C7                     l2107:
  4060  05C7  0821               	movf	___flmul@b+1,w
  4061  05C8  00F9               	movwf	??___flmul
  4062  05C9  0879               	movf	??___flmul,w
  4063  05CA  00F0               	movwf	__Umul8_16@multiplicand
  4064  05CB  0824               	movf	___flmul@a,w
  4065  05CC  120A  158A  2128  120A  118A  	fcall	__Umul8_16
  4066  05D1  0871               	movf	?__Umul8_16+1,w
  4067  05D2  1283               	bcf	3,5	;RP0=0, select bank0
  4068  05D3  1303               	bcf	3,6	;RP1=0, select bank0
  4069  05D4  00B4               	movwf	___flmul@temp+1
  4070  05D5  0870               	movf	?__Umul8_16,w
  4071  05D6  00B3               	movwf	___flmul@temp
  4072  05D7                     l2109:
  4073  05D7  0833               	movf	___flmul@temp,w
  4074  05D8  00F9               	movwf	??___flmul
  4075  05D9  0834               	movf	___flmul@temp+1,w
  4076  05DA  00FA               	movwf	??___flmul+1
  4077  05DB  01FB               	clrf	??___flmul+2
  4078  05DC  01FC               	clrf	??___flmul+3
  4079  05DD  0879               	movf	??___flmul,w
  4080  05DE  07A9               	addwf	___flmul@grs,f
  4081  05DF  087A               	movf	??___flmul+1,w
  4082  05E0  1103               	clrz
  4083  05E1  1803               	skipnc
  4084  05E2  3E01               	addlw	1
  4085  05E3  1903               	skipnz
  4086  05E4  2DE6               	goto	u3171
  4087  05E5  07AA               	addwf	___flmul@grs+1,f
  4088  05E6                     u3171:
  4089  05E6  087B               	movf	??___flmul+2,w
  4090  05E7  1103               	clrz
  4091  05E8  1803               	skipnc
  4092  05E9  3E01               	addlw	1
  4093  05EA  1903               	skipnz
  4094  05EB  2DED               	goto	u3172
  4095  05EC  07AB               	addwf	___flmul@grs+2,f
  4096  05ED                     u3172:
  4097  05ED  087C               	movf	??___flmul+3,w
  4098  05EE  1103               	clrz
  4099  05EF  1803               	skipnc
  4100  05F0  3E01               	addlw	1
  4101  05F1  1903               	skipnz
  4102  05F2  2DF4               	goto	u3173
  4103  05F3  07AC               	addwf	___flmul@grs+3,f
  4104  05F4                     u3173:
  4105  05F4                     l2111:
  4106  05F4  0820               	movf	___flmul@b,w
  4107  05F5  00F9               	movwf	??___flmul
  4108  05F6  0879               	movf	??___flmul,w
  4109  05F7  00F0               	movwf	__Umul8_16@multiplicand
  4110  05F8  0825               	movf	___flmul@a+1,w
  4111  05F9  120A  158A  2128  120A  118A  	fcall	__Umul8_16
  4112  05FE  0871               	movf	?__Umul8_16+1,w
  4113  05FF  1283               	bcf	3,5	;RP0=0, select bank0
  4114  0600  1303               	bcf	3,6	;RP1=0, select bank0
  4115  0601  00B4               	movwf	___flmul@temp+1
  4116  0602  0870               	movf	?__Umul8_16,w
  4117  0603  00B3               	movwf	___flmul@temp
  4118  0604                     l2113:
  4119  0604  0833               	movf	___flmul@temp,w
  4120  0605  00F9               	movwf	??___flmul
  4121  0606  0834               	movf	___flmul@temp+1,w
  4122  0607  00FA               	movwf	??___flmul+1
  4123  0608  01FB               	clrf	??___flmul+2
  4124  0609  01FC               	clrf	??___flmul+3
  4125  060A  0879               	movf	??___flmul,w
  4126  060B  07A9               	addwf	___flmul@grs,f
  4127  060C  087A               	movf	??___flmul+1,w
  4128  060D  1103               	clrz
  4129  060E  1803               	skipnc
  4130  060F  3E01               	addlw	1
  4131  0610  1903               	skipnz
  4132  0611  2E13               	goto	u3181
  4133  0612  07AA               	addwf	___flmul@grs+1,f
  4134  0613                     u3181:
  4135  0613  087B               	movf	??___flmul+2,w
  4136  0614  1103               	clrz
  4137  0615  1803               	skipnc
  4138  0616  3E01               	addlw	1
  4139  0617  1903               	skipnz
  4140  0618  2E1A               	goto	u3182
  4141  0619  07AB               	addwf	___flmul@grs+2,f
  4142  061A                     u3182:
  4143  061A  087C               	movf	??___flmul+3,w
  4144  061B  1103               	clrz
  4145  061C  1803               	skipnc
  4146  061D  3E01               	addlw	1
  4147  061E  1903               	skipnz
  4148  061F  2E21               	goto	u3183
  4149  0620  07AC               	addwf	___flmul@grs+3,f
  4150  0621                     u3183:
  4151  0621                     l2115:
  4152  0621  3008               	movlw	8
  4153  0622  00F9               	movwf	??___flmul
  4154  0623                     u3195:
  4155  0623  1003               	clrc
  4156  0624  0DA9               	rlf	___flmul@grs,f
  4157  0625  0DAA               	rlf	___flmul@grs+1,f
  4158  0626  0DAB               	rlf	___flmul@grs+2,f
  4159  0627  0DAC               	rlf	___flmul@grs+3,f
  4160  0628  0BF9               	decfsz	??___flmul,f
  4161  0629  2E23               	goto	u3195
  4162  062A  0820               	movf	___flmul@b,w
  4163  062B  00F9               	movwf	??___flmul
  4164  062C  0879               	movf	??___flmul,w
  4165  062D  00F0               	movwf	__Umul8_16@multiplicand
  4166  062E  0824               	movf	___flmul@a,w
  4167  062F  120A  158A  2128  120A  118A  	fcall	__Umul8_16
  4168  0634  0871               	movf	?__Umul8_16+1,w
  4169  0635  1283               	bcf	3,5	;RP0=0, select bank0
  4170  0636  1303               	bcf	3,6	;RP1=0, select bank0
  4171  0637  00B4               	movwf	___flmul@temp+1
  4172  0638  0870               	movf	?__Umul8_16,w
  4173  0639  00B3               	movwf	___flmul@temp
  4174  063A                     l2117:
  4175  063A  0833               	movf	___flmul@temp,w
  4176  063B  00F9               	movwf	??___flmul
  4177  063C  0834               	movf	___flmul@temp+1,w
  4178  063D  00FA               	movwf	??___flmul+1
  4179  063E  01FB               	clrf	??___flmul+2
  4180  063F  01FC               	clrf	??___flmul+3
  4181  0640  0879               	movf	??___flmul,w
  4182  0641  07A9               	addwf	___flmul@grs,f
  4183  0642  087A               	movf	??___flmul+1,w
  4184  0643  1103               	clrz
  4185  0644  1803               	skipnc
  4186  0645  3E01               	addlw	1
  4187  0646  1903               	skipnz
  4188  0647  2E49               	goto	u3201
  4189  0648  07AA               	addwf	___flmul@grs+1,f
  4190  0649                     u3201:
  4191  0649  087B               	movf	??___flmul+2,w
  4192  064A  1103               	clrz
  4193  064B  1803               	skipnc
  4194  064C  3E01               	addlw	1
  4195  064D  1903               	skipnz
  4196  064E  2E50               	goto	u3202
  4197  064F  07AB               	addwf	___flmul@grs+2,f
  4198  0650                     u3202:
  4199  0650  087C               	movf	??___flmul+3,w
  4200  0651  1103               	clrz
  4201  0652  1803               	skipnc
  4202  0653  3E01               	addlw	1
  4203  0654  1903               	skipnz
  4204  0655  2E57               	goto	u3203
  4205  0656  07AC               	addwf	___flmul@grs+3,f
  4206  0657                     u3203:
  4207  0657                     l2119:
  4208  0657  0821               	movf	___flmul@b+1,w
  4209  0658  00F9               	movwf	??___flmul
  4210  0659  0879               	movf	??___flmul,w
  4211  065A  00F0               	movwf	__Umul8_16@multiplicand
  4212  065B  0826               	movf	___flmul@a+2,w
  4213  065C  120A  158A  2128  120A  118A  	fcall	__Umul8_16
  4214  0661  0871               	movf	?__Umul8_16+1,w
  4215  0662  1283               	bcf	3,5	;RP0=0, select bank0
  4216  0663  1303               	bcf	3,6	;RP1=0, select bank0
  4217  0664  00B4               	movwf	___flmul@temp+1
  4218  0665  0870               	movf	?__Umul8_16,w
  4219  0666  00B3               	movwf	___flmul@temp
  4220  0667  0833               	movf	___flmul@temp,w
  4221  0668  00F9               	movwf	??___flmul
  4222  0669  0834               	movf	___flmul@temp+1,w
  4223  066A  00FA               	movwf	??___flmul+1
  4224  066B  01FB               	clrf	??___flmul+2
  4225  066C  01FC               	clrf	??___flmul+3
  4226  066D  0879               	movf	??___flmul,w
  4227  066E  07AF               	addwf	___flmul@prod,f
  4228  066F  087A               	movf	??___flmul+1,w
  4229  0670  1103               	clrz
  4230  0671  1803               	skipnc
  4231  0672  3E01               	addlw	1
  4232  0673  1903               	skipnz
  4233  0674  2E76               	goto	u3211
  4234  0675  07B0               	addwf	___flmul@prod+1,f
  4235  0676                     u3211:
  4236  0676  087B               	movf	??___flmul+2,w
  4237  0677  1103               	clrz
  4238  0678  1803               	skipnc
  4239  0679  3E01               	addlw	1
  4240  067A  1903               	skipnz
  4241  067B  2E7D               	goto	u3212
  4242  067C  07B1               	addwf	___flmul@prod+2,f
  4243  067D                     u3212:
  4244  067D  087C               	movf	??___flmul+3,w
  4245  067E  1103               	clrz
  4246  067F  1803               	skipnc
  4247  0680  3E01               	addlw	1
  4248  0681  1903               	skipnz
  4249  0682  2E84               	goto	u3213
  4250  0683  07B2               	addwf	___flmul@prod+3,f
  4251  0684                     u3213:
  4252  0684                     l2121:
  4253  0684  0822               	movf	___flmul@b+2,w
  4254  0685  00F9               	movwf	??___flmul
  4255  0686  0879               	movf	??___flmul,w
  4256  0687  00F0               	movwf	__Umul8_16@multiplicand
  4257  0688  0825               	movf	___flmul@a+1,w
  4258  0689  120A  158A  2128  120A  118A  	fcall	__Umul8_16
  4259  068E  0871               	movf	?__Umul8_16+1,w
  4260  068F  1283               	bcf	3,5	;RP0=0, select bank0
  4261  0690  1303               	bcf	3,6	;RP1=0, select bank0
  4262  0691  00B4               	movwf	___flmul@temp+1
  4263  0692  0870               	movf	?__Umul8_16,w
  4264  0693  00B3               	movwf	___flmul@temp
  4265  0694                     l2123:
  4266  0694  0833               	movf	___flmul@temp,w
  4267  0695  00F9               	movwf	??___flmul
  4268  0696  0834               	movf	___flmul@temp+1,w
  4269  0697  00FA               	movwf	??___flmul+1
  4270  0698  01FB               	clrf	??___flmul+2
  4271  0699  01FC               	clrf	??___flmul+3
  4272  069A  0879               	movf	??___flmul,w
  4273  069B  07AF               	addwf	___flmul@prod,f
  4274  069C  087A               	movf	??___flmul+1,w
  4275  069D  1103               	clrz
  4276  069E  1803               	skipnc
  4277  069F  3E01               	addlw	1
  4278  06A0  1903               	skipnz
  4279  06A1  2EA3               	goto	u3221
  4280  06A2  07B0               	addwf	___flmul@prod+1,f
  4281  06A3                     u3221:
  4282  06A3  087B               	movf	??___flmul+2,w
  4283  06A4  1103               	clrz
  4284  06A5  1803               	skipnc
  4285  06A6  3E01               	addlw	1
  4286  06A7  1903               	skipnz
  4287  06A8  2EAA               	goto	u3222
  4288  06A9  07B1               	addwf	___flmul@prod+2,f
  4289  06AA                     u3222:
  4290  06AA  087C               	movf	??___flmul+3,w
  4291  06AB  1103               	clrz
  4292  06AC  1803               	skipnc
  4293  06AD  3E01               	addlw	1
  4294  06AE  1903               	skipnz
  4295  06AF  2EB1               	goto	u3223
  4296  06B0  07B2               	addwf	___flmul@prod+3,f
  4297  06B1                     u3223:
  4298  06B1  0822               	movf	___flmul@b+2,w
  4299  06B2  00F9               	movwf	??___flmul
  4300  06B3  0879               	movf	??___flmul,w
  4301  06B4  00F0               	movwf	__Umul8_16@multiplicand
  4302  06B5  0826               	movf	___flmul@a+2,w
  4303  06B6  120A  158A  2128  120A  118A  	fcall	__Umul8_16
  4304  06BB  0871               	movf	?__Umul8_16+1,w
  4305  06BC  1283               	bcf	3,5	;RP0=0, select bank0
  4306  06BD  1303               	bcf	3,6	;RP1=0, select bank0
  4307  06BE  00B4               	movwf	___flmul@temp+1
  4308  06BF  0870               	movf	?__Umul8_16,w
  4309  06C0  00B3               	movwf	___flmul@temp
  4310  06C1                     l2125:
  4311  06C1  0833               	movf	___flmul@temp,w
  4312  06C2  00F9               	movwf	??___flmul
  4313  06C3  0834               	movf	___flmul@temp+1,w
  4314  06C4  00FA               	movwf	??___flmul+1
  4315  06C5  01FB               	clrf	??___flmul+2
  4316  06C6  01FC               	clrf	??___flmul+3
  4317  06C7  3008               	movlw	8
  4318  06C8                     u3235:
  4319  06C8  1003               	clrc
  4320  06C9  0DF9               	rlf	??___flmul,f
  4321  06CA  0DFA               	rlf	??___flmul+1,f
  4322  06CB  0DFB               	rlf	??___flmul+2,f
  4323  06CC  0DFC               	rlf	??___flmul+3,f
  4324  06CD                     u3230:
  4325  06CD  3EFF               	addlw	-1
  4326  06CE  1D03               	skipz
  4327  06CF  2EC8               	goto	u3235
  4328  06D0  0879               	movf	??___flmul,w
  4329  06D1  07AF               	addwf	___flmul@prod,f
  4330  06D2  087A               	movf	??___flmul+1,w
  4331  06D3  1103               	clrz
  4332  06D4  1803               	skipnc
  4333  06D5  3E01               	addlw	1
  4334  06D6  1903               	skipnz
  4335  06D7  2ED9               	goto	u3241
  4336  06D8  07B0               	addwf	___flmul@prod+1,f
  4337  06D9                     u3241:
  4338  06D9  087B               	movf	??___flmul+2,w
  4339  06DA  1103               	clrz
  4340  06DB  1803               	skipnc
  4341  06DC  3E01               	addlw	1
  4342  06DD  1903               	skipnz
  4343  06DE  2EE0               	goto	u3242
  4344  06DF  07B1               	addwf	___flmul@prod+2,f
  4345  06E0                     u3242:
  4346  06E0  087C               	movf	??___flmul+3,w
  4347  06E1  1103               	clrz
  4348  06E2  1803               	skipnc
  4349  06E3  3E01               	addlw	1
  4350  06E4  1903               	skipnz
  4351  06E5  2EE7               	goto	u3243
  4352  06E6  07B2               	addwf	___flmul@prod+3,f
  4353  06E7                     u3243:
  4354  06E7                     l2127:
  4355  06E7  0829               	movf	___flmul@grs,w
  4356  06E8  00F9               	movwf	??___flmul
  4357  06E9  082A               	movf	___flmul@grs+1,w
  4358  06EA  00FA               	movwf	??___flmul+1
  4359  06EB  082B               	movf	___flmul@grs+2,w
  4360  06EC  00FB               	movwf	??___flmul+2
  4361  06ED  082C               	movf	___flmul@grs+3,w
  4362  06EE  00FC               	movwf	??___flmul+3
  4363  06EF  3018               	movlw	24
  4364  06F0                     u3255:
  4365  06F0  1003               	clrc
  4366  06F1  0CFC               	rrf	??___flmul+3,f
  4367  06F2  0CFB               	rrf	??___flmul+2,f
  4368  06F3  0CFA               	rrf	??___flmul+1,f
  4369  06F4  0CF9               	rrf	??___flmul,f
  4370  06F5                     u3250:
  4371  06F5  3EFF               	addlw	-1
  4372  06F6  1D03               	skipz
  4373  06F7  2EF0               	goto	u3255
  4374  06F8  0879               	movf	??___flmul,w
  4375  06F9  07AF               	addwf	___flmul@prod,f
  4376  06FA  087A               	movf	??___flmul+1,w
  4377  06FB  1103               	clrz
  4378  06FC  1803               	skipnc
  4379  06FD  3E01               	addlw	1
  4380  06FE  1903               	skipnz
  4381  06FF  2F01               	goto	u3261
  4382  0700  07B0               	addwf	___flmul@prod+1,f
  4383  0701                     u3261:
  4384  0701  087B               	movf	??___flmul+2,w
  4385  0702  1103               	clrz
  4386  0703  1803               	skipnc
  4387  0704  3E01               	addlw	1
  4388  0705  1903               	skipnz
  4389  0706  2F08               	goto	u3262
  4390  0707  07B1               	addwf	___flmul@prod+2,f
  4391  0708                     u3262:
  4392  0708  087C               	movf	??___flmul+3,w
  4393  0709  1103               	clrz
  4394  070A  1803               	skipnc
  4395  070B  3E01               	addlw	1
  4396  070C  1903               	skipnz
  4397  070D  2F0F               	goto	u3263
  4398  070E  07B2               	addwf	___flmul@prod+3,f
  4399  070F                     u3263:
  4400  070F                     l2129:
  4401  070F  3008               	movlw	8
  4402  0710  00F9               	movwf	??___flmul
  4403  0711                     u3275:
  4404  0711  1003               	clrc
  4405  0712  0DA9               	rlf	___flmul@grs,f
  4406  0713  0DAA               	rlf	___flmul@grs+1,f
  4407  0714  0DAB               	rlf	___flmul@grs+2,f
  4408  0715  0DAC               	rlf	___flmul@grs+3,f
  4409  0716  0BF9               	decfsz	??___flmul,f
  4410  0717  2F11               	goto	u3275
  4411  0718                     l2131:
  4412  0718  082E               	movf	___flmul@bexp,w
  4413  0719  072D               	addwf	___flmul@aexp,w
  4414  071A  00F9               	movwf	??___flmul
  4415  071B  01FA               	clrf	??___flmul+1
  4416  071C  0DFA               	rlf	??___flmul+1,f
  4417  071D  0879               	movf	??___flmul,w
  4418  071E  3E82               	addlw	130
  4419  071F  00B3               	movwf	___flmul@temp
  4420  0720  087A               	movf	??___flmul+1,w
  4421  0721  1803               	skipnc
  4422  0722  3E01               	addlw	1
  4423  0723  3EFF               	addlw	255
  4424  0724  00B4               	movwf	___flmul@temp+1
  4425  0725  2F43               	goto	l2143
  4426  0726                     l2133:
  4427  0726  3001               	movlw	1
  4428  0727  00F9               	movwf	??___flmul
  4429  0728                     u3285:
  4430  0728  1003               	clrc
  4431  0729  0DAF               	rlf	___flmul@prod,f
  4432  072A  0DB0               	rlf	___flmul@prod+1,f
  4433  072B  0DB1               	rlf	___flmul@prod+2,f
  4434  072C  0DB2               	rlf	___flmul@prod+3,f
  4435  072D  0BF9               	decfsz	??___flmul,f
  4436  072E  2F28               	goto	u3285
  4437  072F                     l2135:
  4438  072F  1FAC               	btfss	___flmul@grs+3,7
  4439  0730  2F32               	goto	u3291
  4440  0731  2F33               	goto	u3290
  4441  0732                     u3291:
  4442  0732  2F34               	goto	l2139
  4443  0733                     u3290:
  4444  0733                     l2137:
  4445  0733  142F               	bsf	___flmul@prod,0
  4446  0734                     l2139:
  4447  0734  3001               	movlw	1
  4448  0735  00F9               	movwf	??___flmul
  4449  0736                     u3305:
  4450  0736  1003               	clrc
  4451  0737  0DA9               	rlf	___flmul@grs,f
  4452  0738  0DAA               	rlf	___flmul@grs+1,f
  4453  0739  0DAB               	rlf	___flmul@grs+2,f
  4454  073A  0DAC               	rlf	___flmul@grs+3,f
  4455  073B  0BF9               	decfsz	??___flmul,f
  4456  073C  2F36               	goto	u3305
  4457  073D                     l2141:
  4458  073D  30FF               	movlw	255
  4459  073E  07B3               	addwf	___flmul@temp,f
  4460  073F  1803               	skipnc
  4461  0740  0AB4               	incf	___flmul@temp+1,f
  4462  0741  30FF               	movlw	255
  4463  0742  07B4               	addwf	___flmul@temp+1,f
  4464  0743                     l2143:
  4465  0743  1FB1               	btfss	___flmul@prod+2,7
  4466  0744  2F46               	goto	u3311
  4467  0745  2F47               	goto	u3310
  4468  0746                     u3311:
  4469  0746  2F26               	goto	l2133
  4470  0747                     u3310:
  4471  0747                     l2145:
  4472  0747  01AD               	clrf	___flmul@aexp
  4473  0748                     l2147:
  4474  0748  1FAC               	btfss	___flmul@grs+3,7
  4475  0749  2F4B               	goto	u3321
  4476  074A  2F4C               	goto	u3320
  4477  074B                     u3321:
  4478  074B  2F68               	goto	l2155
  4479  074C                     u3320:
  4480  074C                     l2149:
  4481  074C  30FF               	movlw	255
  4482  074D  0529               	andwf	___flmul@grs,w
  4483  074E  00F9               	movwf	??___flmul
  4484  074F  30FF               	movlw	255
  4485  0750  052A               	andwf	___flmul@grs+1,w
  4486  0751  00FA               	movwf	??___flmul+1
  4487  0752  30FF               	movlw	255
  4488  0753  052B               	andwf	___flmul@grs+2,w
  4489  0754  00FB               	movwf	??___flmul+2
  4490  0755  307F               	movlw	127
  4491  0756  052C               	andwf	___flmul@grs+3,w
  4492  0757  00FC               	movwf	??___flmul+3
  4493  0758  087C               	movf	??___flmul+3,w
  4494  0759  047B               	iorwf	??___flmul+2,w
  4495  075A  047A               	iorwf	??___flmul+1,w
  4496  075B  0479               	iorwf	??___flmul,w
  4497  075C  1903               	skipnz
  4498  075D  2F5F               	goto	u3331
  4499  075E  2F60               	goto	u3330
  4500  075F                     u3331:
  4501  075F  2F63               	goto	l530
  4502  0760                     u3330:
  4503  0760                     l2151:
  4504  0760  01AD               	clrf	___flmul@aexp
  4505  0761  0AAD               	incf	___flmul@aexp,f
  4506  0762  2F68               	goto	l2155
  4507  0763                     l530:
  4508  0763  1C2F               	btfss	___flmul@prod,0
  4509  0764  2F66               	goto	u3341
  4510  0765  2F67               	goto	u3340
  4511  0766                     u3341:
  4512  0766  2F68               	goto	l2155
  4513  0767                     u3340:
  4514  0767  2F60               	goto	l2151
  4515  0768                     l2155:
  4516  0768  082D               	movf	___flmul@aexp,w
  4517  0769  1903               	btfsc	3,2
  4518  076A  2F6C               	goto	u3351
  4519  076B  2F6D               	goto	u3350
  4520  076C                     u3351:
  4521  076C  2F9E               	goto	l2165
  4522  076D                     u3350:
  4523  076D                     l2157:
  4524  076D  3001               	movlw	1
  4525  076E  07AF               	addwf	___flmul@prod,f
  4526  076F  3000               	movlw	0
  4527  0770  1803               	skipnc
  4528  0771  3001               	movlw	1
  4529  0772  07B0               	addwf	___flmul@prod+1,f
  4530  0773  3000               	movlw	0
  4531  0774  1803               	skipnc
  4532  0775  3001               	movlw	1
  4533  0776  07B1               	addwf	___flmul@prod+2,f
  4534  0777  3000               	movlw	0
  4535  0778  1803               	skipnc
  4536  0779  3001               	movlw	1
  4537  077A  07B2               	addwf	___flmul@prod+3,f
  4538  077B                     l2159:
  4539  077B  1C32               	btfss	___flmul@prod+3,0
  4540  077C  2F7E               	goto	u3361
  4541  077D  2F7F               	goto	u3360
  4542  077E                     u3361:
  4543  077E  2F9E               	goto	l2165
  4544  077F                     u3360:
  4545  077F                     l2161:
  4546  077F  082F               	movf	___flmul@prod,w
  4547  0780  00F9               	movwf	??___flmul
  4548  0781  0830               	movf	___flmul@prod+1,w
  4549  0782  00FA               	movwf	??___flmul+1
  4550  0783  0831               	movf	___flmul@prod+2,w
  4551  0784  00FB               	movwf	??___flmul+2
  4552  0785  0832               	movf	___flmul@prod+3,w
  4553  0786  00FC               	movwf	??___flmul+3
  4554  0787  3001               	movlw	1
  4555  0788  00FD               	movwf	??___flmul+4
  4556  0789                     u3375:
  4557  0789  0D7C               	rlf	??___flmul+3,w
  4558  078A  0CFC               	rrf	??___flmul+3,f
  4559  078B  0CFB               	rrf	??___flmul+2,f
  4560  078C  0CFA               	rrf	??___flmul+1,f
  4561  078D  0CF9               	rrf	??___flmul,f
  4562  078E                     u3370:
  4563  078E  0BFD               	decfsz	??___flmul+4,f
  4564  078F  2F89               	goto	u3375
  4565  0790  087C               	movf	??___flmul+3,w
  4566  0791  00B2               	movwf	___flmul@prod+3
  4567  0792  087B               	movf	??___flmul+2,w
  4568  0793  00B1               	movwf	___flmul@prod+2
  4569  0794  087A               	movf	??___flmul+1,w
  4570  0795  00B0               	movwf	___flmul@prod+1
  4571  0796  0879               	movf	??___flmul,w
  4572  0797  00AF               	movwf	___flmul@prod
  4573  0798                     l2163:
  4574  0798  3001               	movlw	1
  4575  0799  07B3               	addwf	___flmul@temp,f
  4576  079A  1803               	skipnc
  4577  079B  0AB4               	incf	___flmul@temp+1,f
  4578  079C  3000               	movlw	0
  4579  079D  07B4               	addwf	___flmul@temp+1,f
  4580  079E                     l2165:
  4581  079E  0834               	movf	___flmul@temp+1,w
  4582  079F  3A80               	xorlw	128
  4583  07A0  00FF               	movwf	btemp+1
  4584  07A1  3080               	movlw	128
  4585  07A2  027F               	subwf	btemp+1,w
  4586  07A3  1D03               	skipz
  4587  07A4  2FA7               	goto	u3385
  4588  07A5  30FF               	movlw	255
  4589  07A6  0233               	subwf	___flmul@temp,w
  4590  07A7                     u3385:
  4591  07A7  1C03               	skipc
  4592  07A8  2FAA               	goto	u3381
  4593  07A9  2FAB               	goto	u3380
  4594  07AA                     u3381:
  4595  07AA  2FB6               	goto	l2169
  4596  07AB                     u3380:
  4597  07AB                     l2167:
  4598  07AB  307F               	movlw	127
  4599  07AC  1283               	bcf	3,5	;RP0=0, select bank0
  4600  07AD  1303               	bcf	3,6	;RP1=0, select bank0
  4601  07AE  00B2               	movwf	___flmul@prod+3
  4602  07AF  3080               	movlw	128
  4603  07B0  00B1               	movwf	___flmul@prod+2
  4604  07B1  3000               	movlw	0
  4605  07B2  00B0               	movwf	___flmul@prod+1
  4606  07B3  3000               	movlw	0
  4607  07B4  00AF               	movwf	___flmul@prod
  4608  07B5  2FEB               	goto	l536
  4609  07B6                     l2169:
  4610  07B6  1283               	bcf	3,5	;RP0=0, select bank0
  4611  07B7  1303               	bcf	3,6	;RP1=0, select bank0
  4612  07B8  0834               	movf	___flmul@temp+1,w
  4613  07B9  3A80               	xorlw	128
  4614  07BA  00FF               	movwf	btemp+1
  4615  07BB  3080               	movlw	128
  4616  07BC  027F               	subwf	btemp+1,w
  4617  07BD  1D03               	skipz
  4618  07BE  2FC1               	goto	u3395
  4619  07BF  3001               	movlw	1
  4620  07C0  0233               	subwf	___flmul@temp,w
  4621  07C1                     u3395:
  4622  07C1  1803               	skipnc
  4623  07C2  2FC4               	goto	u3391
  4624  07C3  2FC5               	goto	u3390
  4625  07C4                     u3391:
  4626  07C4  2FD1               	goto	l2175
  4627  07C5                     u3390:
  4628  07C5                     l2171:
  4629  07C5  3000               	movlw	0
  4630  07C6  1283               	bcf	3,5	;RP0=0, select bank0
  4631  07C7  1303               	bcf	3,6	;RP1=0, select bank0
  4632  07C8  00B2               	movwf	___flmul@prod+3
  4633  07C9  3000               	movlw	0
  4634  07CA  00B1               	movwf	___flmul@prod+2
  4635  07CB  3000               	movlw	0
  4636  07CC  00B0               	movwf	___flmul@prod+1
  4637  07CD  3000               	movlw	0
  4638  07CE  00AF               	movwf	___flmul@prod
  4639  07CF                     l2173:
  4640  07CF  01A8               	clrf	___flmul@sign
  4641  07D0  2FEB               	goto	l536
  4642  07D1                     l2175:
  4643  07D1  1283               	bcf	3,5	;RP0=0, select bank0
  4644  07D2  1303               	bcf	3,6	;RP1=0, select bank0
  4645  07D3  0833               	movf	___flmul@temp,w
  4646  07D4  00F9               	movwf	??___flmul
  4647  07D5  0879               	movf	??___flmul,w
  4648  07D6  00AE               	movwf	___flmul@bexp
  4649  07D7  30FF               	movlw	255
  4650  07D8  05AF               	andwf	___flmul@prod,f
  4651  07D9  30FF               	movlw	255
  4652  07DA  05B0               	andwf	___flmul@prod+1,f
  4653  07DB  307F               	movlw	127
  4654  07DC  05B1               	andwf	___flmul@prod+2,f
  4655  07DD  3000               	movlw	0
  4656  07DE  05B2               	andwf	___flmul@prod+3,f
  4657  07DF                     l2177:
  4658  07DF  1C2E               	btfss	___flmul@bexp,0
  4659  07E0  2FE2               	goto	u3401
  4660  07E1  2FE3               	goto	u3400
  4661  07E2                     u3401:
  4662  07E2  2FE4               	goto	l2181
  4663  07E3                     u3400:
  4664  07E3                     l2179:
  4665  07E3  17B1               	bsf	___flmul@prod+2,7
  4666  07E4                     l2181:
  4667  07E4  082E               	movf	___flmul@bexp,w
  4668  07E5  00F9               	movwf	??___flmul
  4669  07E6  1003               	clrc
  4670  07E7  0C79               	rrf	??___flmul,w
  4671  07E8  00FA               	movwf	??___flmul+1
  4672  07E9  087A               	movf	??___flmul+1,w
  4673  07EA  00B2               	movwf	___flmul@prod+3
  4674  07EB                     l536:
  4675  07EB  0828               	movf	___flmul@sign,w
  4676  07EC  00F9               	movwf	??___flmul
  4677  07ED  0879               	movf	??___flmul,w
  4678  07EE  04B2               	iorwf	___flmul@prod+3,f
  4679  07EF                     l2183:
  4680  07EF  0832               	movf	___flmul@prod+3,w
  4681  07F0  00A3               	movwf	?___flmul+3
  4682  07F1  0831               	movf	___flmul@prod+2,w
  4683  07F2  00A2               	movwf	?___flmul+2
  4684  07F3  0830               	movf	___flmul@prod+1,w
  4685  07F4  00A1               	movwf	?___flmul+1
  4686  07F5  082F               	movf	___flmul@prod,w
  4687  07F6  00A0               	movwf	?___flmul
  4688  07F7                     l524:
  4689  07F7  0008               	return
  4690  07F8                     __end_of___flmul:
  4691                           
  4692                           	psect	text13
  4693  0928                     __ptext13:	
  4694 ;; *************** function __Umul8_16 *****************
  4695 ;; Defined at:
  4696 ;;		line 4 in file "C:\Program Files\Microchip\xc8\v2.32\pic\sources\c90\common\Umul8_16.c"
  4697 ;; Parameters:    Size  Location     Type
  4698 ;;  multiplier      1    wreg     unsigned char 
  4699 ;;  multiplicand    1    0[COMMON] unsigned char 
  4700 ;; Auto vars:     Size  Location     Type
  4701 ;;  multiplier      1    8[COMMON] unsigned char 
  4702 ;;  word_mpld       2    6[COMMON] unsigned int 
  4703 ;;  product         2    4[COMMON] unsigned int 
  4704 ;; Return value:  Size  Location     Type
  4705 ;;                  2    0[COMMON] unsigned int 
  4706 ;; Registers used:
  4707 ;;		wreg, status,2, status,0
  4708 ;; Tracked objects:
  4709 ;;		On entry : 0/0
  4710 ;;		On exit  : 0/0
  4711 ;;		Unchanged: 0/0
  4712 ;; Data sizes:     COMMON   BANK0   BANK1   BANK3   BANK2
  4713 ;;      Params:         2       0       0       0       0
  4714 ;;      Locals:         5       0       0       0       0
  4715 ;;      Temps:          2       0       0       0       0
  4716 ;;      Totals:         9       0       0       0       0
  4717 ;;Total ram usage:        9 bytes
  4718 ;; Hardware stack levels used: 1
  4719 ;; This function calls:
  4720 ;;		Nothing
  4721 ;; This function is called by:
  4722 ;;		___flmul
  4723 ;; This function uses a non-reentrant model
  4724 ;;
  4725                           
  4726                           
  4727                           ;psect for function __Umul8_16
  4728  0928                     __Umul8_16:
  4729                           
  4730                           ;incstack = 0
  4731                           ; Regs used in __Umul8_16: [wreg+status,2+status,0]
  4732                           ;__Umul8_16@multiplier stored from wreg
  4733  0928  00F8               	movwf	__Umul8_16@multiplier
  4734  0929                     l1783:
  4735  0929  01F4               	clrf	__Umul8_16@product
  4736  092A  01F5               	clrf	__Umul8_16@product+1
  4737  092B                     l1785:
  4738  092B  0870               	movf	__Umul8_16@multiplicand,w
  4739  092C  00F2               	movwf	??__Umul8_16
  4740  092D  01F3               	clrf	??__Umul8_16+1
  4741  092E  0872               	movf	??__Umul8_16,w
  4742  092F  00F6               	movwf	__Umul8_16@word_mpld
  4743  0930  0873               	movf	??__Umul8_16+1,w
  4744  0931  00F7               	movwf	__Umul8_16@word_mpld+1
  4745  0932                     l1787:
  4746  0932  1C78               	btfss	__Umul8_16@multiplier,0
  4747  0933  2935               	goto	u2461
  4748  0934  2936               	goto	u2460
  4749  0935                     u2461:
  4750  0935  293C               	goto	l543
  4751  0936                     u2460:
  4752  0936                     l1789:
  4753  0936  0876               	movf	__Umul8_16@word_mpld,w
  4754  0937  07F4               	addwf	__Umul8_16@product,f
  4755  0938  1803               	skipnc
  4756  0939  0AF5               	incf	__Umul8_16@product+1,f
  4757  093A  0877               	movf	__Umul8_16@word_mpld+1,w
  4758  093B  07F5               	addwf	__Umul8_16@product+1,f
  4759  093C                     l543:
  4760  093C  3001               	movlw	1
  4761  093D                     u2475:
  4762  093D  1003               	clrc
  4763  093E  0DF6               	rlf	__Umul8_16@word_mpld,f
  4764  093F  0DF7               	rlf	__Umul8_16@word_mpld+1,f
  4765  0940  3EFF               	addlw	-1
  4766  0941  1D03               	skipz
  4767  0942  293D               	goto	u2475
  4768  0943  1003               	clrc
  4769  0944  0CF8               	rrf	__Umul8_16@multiplier,f
  4770  0945                     l1791:
  4771  0945  0878               	movf	__Umul8_16@multiplier,w
  4772  0946  1D03               	btfss	3,2
  4773  0947  2949               	goto	u2481
  4774  0948  294A               	goto	u2480
  4775  0949                     u2481:
  4776  0949  2932               	goto	l1787
  4777  094A                     u2480:
  4778  094A                     l1793:
  4779  094A  0875               	movf	__Umul8_16@product+1,w
  4780  094B  00F1               	movwf	?__Umul8_16+1
  4781  094C  0874               	movf	__Umul8_16@product,w
  4782  094D  00F0               	movwf	?__Umul8_16
  4783  094E                     l545:
  4784  094E  0008               	return
  4785  094F                     __end_of__Umul8_16:
  4786                           
  4787                           	psect	text14
  4788  00A1                     __ptext14:	
  4789 ;; *************** function ___flge *****************
  4790 ;; Defined at:
  4791 ;;		line 4 in file "C:\Program Files\Microchip\xc8\v2.32\pic\sources\c90\common\flge.c"
  4792 ;; Parameters:    Size  Location     Type
  4793 ;;  ff1             4    0[COMMON] unsigned int 
  4794 ;;  ff2             4    4[COMMON] unsigned int 
  4795 ;; Auto vars:     Size  Location     Type
  4796 ;;		None
  4797 ;; Return value:  Size  Location     Type
  4798 ;;		None               void
  4799 ;; Registers used:
  4800 ;;		wreg, status,2, status,0
  4801 ;; Tracked objects:
  4802 ;;		On entry : 0/0
  4803 ;;		On exit  : 0/0
  4804 ;;		Unchanged: 0/0
  4805 ;; Data sizes:     COMMON   BANK0   BANK1   BANK3   BANK2
  4806 ;;      Params:         8       0       0       0       0
  4807 ;;      Locals:         0       0       0       0       0
  4808 ;;      Temps:          4       0       0       0       0
  4809 ;;      Totals:        12       0       0       0       0
  4810 ;;Total ram usage:       12 bytes
  4811 ;; Hardware stack levels used: 1
  4812 ;; This function calls:
  4813 ;;		Nothing
  4814 ;; This function is called by:
  4815 ;;		_main
  4816 ;; This function uses a non-reentrant model
  4817 ;;
  4818                           
  4819                           
  4820                           ;psect for function ___flge
  4821  00A1                     ___flge:
  4822  00A1                     l1837:	
  4823                           ;incstack = 0
  4824                           ; Regs used in ___flge: [wreg+status,2+status,0]
  4825                           
  4826  00A1  3000               	movlw	0
  4827  00A2  0570               	andwf	___flge@ff1,w
  4828  00A3  00F8               	movwf	??___flge
  4829  00A4  3000               	movlw	0
  4830  00A5  0571               	andwf	___flge@ff1+1,w
  4831  00A6  00F9               	movwf	??___flge+1
  4832  00A7  3080               	movlw	128
  4833  00A8  0572               	andwf	___flge@ff1+2,w
  4834  00A9  00FA               	movwf	??___flge+2
  4835  00AA  307F               	movlw	127
  4836  00AB  0573               	andwf	___flge@ff1+3,w
  4837  00AC  00FB               	movwf	??___flge+3
  4838  00AD  087B               	movf	??___flge+3,w
  4839  00AE  047A               	iorwf	??___flge+2,w
  4840  00AF  0479               	iorwf	??___flge+1,w
  4841  00B0  0478               	iorwf	??___flge,w
  4842  00B1  1D03               	skipz
  4843  00B2  28B4               	goto	u2551
  4844  00B3  28B5               	goto	u2550
  4845  00B4                     u2551:
  4846  00B4  28BD               	goto	l309
  4847  00B5                     u2550:
  4848  00B5                     l1839:
  4849  00B5  3000               	movlw	0
  4850  00B6  00F3               	movwf	___flge@ff1+3
  4851  00B7  3000               	movlw	0
  4852  00B8  00F2               	movwf	___flge@ff1+2
  4853  00B9  3000               	movlw	0
  4854  00BA  00F1               	movwf	___flge@ff1+1
  4855  00BB  3000               	movlw	0
  4856  00BC  00F0               	movwf	___flge@ff1
  4857  00BD                     l309:
  4858  00BD  3000               	movlw	0
  4859  00BE  0574               	andwf	___flge@ff2,w
  4860  00BF  00F8               	movwf	??___flge
  4861  00C0  3000               	movlw	0
  4862  00C1  0575               	andwf	___flge@ff2+1,w
  4863  00C2  00F9               	movwf	??___flge+1
  4864  00C3  3080               	movlw	128
  4865  00C4  0576               	andwf	___flge@ff2+2,w
  4866  00C5  00FA               	movwf	??___flge+2
  4867  00C6  307F               	movlw	127
  4868  00C7  0577               	andwf	___flge@ff2+3,w
  4869  00C8  00FB               	movwf	??___flge+3
  4870  00C9  087B               	movf	??___flge+3,w
  4871  00CA  047A               	iorwf	??___flge+2,w
  4872  00CB  0479               	iorwf	??___flge+1,w
  4873  00CC  0478               	iorwf	??___flge,w
  4874  00CD  1D03               	skipz
  4875  00CE  28D0               	goto	u2561
  4876  00CF  28D1               	goto	u2560
  4877  00D0                     u2561:
  4878  00D0  28D9               	goto	l1843
  4879  00D1                     u2560:
  4880  00D1                     l1841:
  4881  00D1  3000               	movlw	0
  4882  00D2  00F7               	movwf	___flge@ff2+3
  4883  00D3  3000               	movlw	0
  4884  00D4  00F6               	movwf	___flge@ff2+2
  4885  00D5  3000               	movlw	0
  4886  00D6  00F5               	movwf	___flge@ff2+1
  4887  00D7  3000               	movlw	0
  4888  00D8  00F4               	movwf	___flge@ff2
  4889  00D9                     l1843:
  4890  00D9  1FF3               	btfss	___flge@ff1+3,7
  4891  00DA  28DC               	goto	u2571
  4892  00DB  28DD               	goto	u2570
  4893  00DC                     u2571:
  4894  00DC  2901               	goto	l1847
  4895  00DD                     u2570:
  4896  00DD                     l1845:
  4897  00DD  3000               	movlw	0
  4898  00DE  00F8               	movwf	??___flge
  4899  00DF  3000               	movlw	0
  4900  00E0  00F9               	movwf	??___flge+1
  4901  00E1  3000               	movlw	0
  4902  00E2  00FA               	movwf	??___flge+2
  4903  00E3  3080               	movlw	128
  4904  00E4  00FB               	movwf	??___flge+3
  4905  00E5  0870               	movf	___flge@ff1,w
  4906  00E6  02F8               	subwf	??___flge,f
  4907  00E7  0871               	movf	___flge@ff1+1,w
  4908  00E8  1C03               	skipc
  4909  00E9  0F71               	incfsz	___flge@ff1+1,w
  4910  00EA  28EC               	goto	u2581
  4911  00EB  28ED               	goto	u2582
  4912  00EC                     u2581:
  4913  00EC  02F9               	subwf	??___flge+1,f
  4914  00ED                     u2582:
  4915  00ED  0872               	movf	___flge@ff1+2,w
  4916  00EE  1C03               	skipc
  4917  00EF  0F72               	incfsz	___flge@ff1+2,w
  4918  00F0  28F2               	goto	u2583
  4919  00F1  28F3               	goto	u2584
  4920  00F2                     u2583:
  4921  00F2  02FA               	subwf	??___flge+2,f
  4922  00F3                     u2584:
  4923  00F3  0873               	movf	___flge@ff1+3,w
  4924  00F4  1C03               	skipc
  4925  00F5  0F73               	incfsz	___flge@ff1+3,w
  4926  00F6  28F8               	goto	u2585
  4927  00F7  28F9               	goto	u2586
  4928  00F8                     u2585:
  4929  00F8  02FB               	subwf	??___flge+3,f
  4930  00F9                     u2586:
  4931  00F9  087B               	movf	??___flge+3,w
  4932  00FA  00F3               	movwf	___flge@ff1+3
  4933  00FB  087A               	movf	??___flge+2,w
  4934  00FC  00F2               	movwf	___flge@ff1+2
  4935  00FD  0879               	movf	??___flge+1,w
  4936  00FE  00F1               	movwf	___flge@ff1+1
  4937  00FF  0878               	movf	??___flge,w
  4938  0100  00F0               	movwf	___flge@ff1
  4939  0101                     l1847:
  4940  0101  1FF7               	btfss	___flge@ff2+3,7
  4941  0102  2904               	goto	u2591
  4942  0103  2905               	goto	u2590
  4943  0104                     u2591:
  4944  0104  2929               	goto	l312
  4945  0105                     u2590:
  4946  0105                     l1849:
  4947  0105  3000               	movlw	0
  4948  0106  00F8               	movwf	??___flge
  4949  0107  3000               	movlw	0
  4950  0108  00F9               	movwf	??___flge+1
  4951  0109  3000               	movlw	0
  4952  010A  00FA               	movwf	??___flge+2
  4953  010B  3080               	movlw	128
  4954  010C  00FB               	movwf	??___flge+3
  4955  010D  0874               	movf	___flge@ff2,w
  4956  010E  02F8               	subwf	??___flge,f
  4957  010F  0875               	movf	___flge@ff2+1,w
  4958  0110  1C03               	skipc
  4959  0111  0F75               	incfsz	___flge@ff2+1,w
  4960  0112  2914               	goto	u2601
  4961  0113  2915               	goto	u2602
  4962  0114                     u2601:
  4963  0114  02F9               	subwf	??___flge+1,f
  4964  0115                     u2602:
  4965  0115  0876               	movf	___flge@ff2+2,w
  4966  0116  1C03               	skipc
  4967  0117  0F76               	incfsz	___flge@ff2+2,w
  4968  0118  291A               	goto	u2603
  4969  0119  291B               	goto	u2604
  4970  011A                     u2603:
  4971  011A  02FA               	subwf	??___flge+2,f
  4972  011B                     u2604:
  4973  011B  0877               	movf	___flge@ff2+3,w
  4974  011C  1C03               	skipc
  4975  011D  0F77               	incfsz	___flge@ff2+3,w
  4976  011E  2920               	goto	u2605
  4977  011F  2921               	goto	u2606
  4978  0120                     u2605:
  4979  0120  02FB               	subwf	??___flge+3,f
  4980  0121                     u2606:
  4981  0121  087B               	movf	??___flge+3,w
  4982  0122  00F7               	movwf	___flge@ff2+3
  4983  0123  087A               	movf	??___flge+2,w
  4984  0124  00F6               	movwf	___flge@ff2+2
  4985  0125  0879               	movf	??___flge+1,w
  4986  0126  00F5               	movwf	___flge@ff2+1
  4987  0127  0878               	movf	??___flge,w
  4988  0128  00F4               	movwf	___flge@ff2
  4989  0129                     l312:
  4990  0129  3080               	movlw	128
  4991  012A  06F3               	xorwf	___flge@ff1+3,f
  4992  012B  3080               	movlw	128
  4993  012C  06F7               	xorwf	___flge@ff2+3,f
  4994  012D  0877               	movf	___flge@ff2+3,w
  4995  012E  0273               	subwf	___flge@ff1+3,w
  4996  012F  1D03               	skipz
  4997  0130  293B               	goto	u2615
  4998  0131  0876               	movf	___flge@ff2+2,w
  4999  0132  0272               	subwf	___flge@ff1+2,w
  5000  0133  1D03               	skipz
  5001  0134  293B               	goto	u2615
  5002  0135  0875               	movf	___flge@ff2+1,w
  5003  0136  0271               	subwf	___flge@ff1+1,w
  5004  0137  1D03               	skipz
  5005  0138  293B               	goto	u2615
  5006  0139  0874               	movf	___flge@ff2,w
  5007  013A  0270               	subwf	___flge@ff1,w
  5008  013B                     u2615:
  5009  013B  1803               	skipnc
  5010  013C  293E               	goto	u2611
  5011  013D  293F               	goto	u2610
  5012  013E                     u2611:
  5013  013E  2941               	goto	l1853
  5014  013F                     u2610:
  5015  013F                     l1851:
  5016  013F  1003               	clrc
  5017  0140  2942               	goto	l313
  5018  0141                     l1853:
  5019  0141  1403               	setc
  5020  0142                     l313:
  5021  0142  0008               	return
  5022  0143                     __end_of___flge:
  5023                           
  5024                           	psect	text15
  5025  0B32                     __ptext15:	
  5026 ;; *************** function ___fldiv *****************
  5027 ;; Defined at:
  5028 ;;		line 8 in file "C:\Program Files\Microchip\xc8\v2.32\pic\sources\c90\common\sprcdiv.c"
  5029 ;; Parameters:    Size  Location     Type
  5030 ;;  a               4    0[BANK1 ] unsigned int 
  5031 ;;  b               4    4[BANK1 ] unsigned int 
  5032 ;; Auto vars:     Size  Location     Type
  5033 ;;  grs             4   15[BANK1 ] unsigned long 
  5034 ;;  rem             4    8[BANK1 ] unsigned long 
  5035 ;;  new_exp         2   13[BANK1 ] int 
  5036 ;;  aexp            1   20[BANK1 ] unsigned char 
  5037 ;;  bexp            1   19[BANK1 ] unsigned char 
  5038 ;;  sign            1   12[BANK1 ] unsigned char 
  5039 ;; Return value:  Size  Location     Type
  5040 ;;                  4    0[BANK1 ] unsigned char 
  5041 ;; Registers used:
  5042 ;;		wreg, status,2, status,0, btemp+1
  5043 ;; Tracked objects:
  5044 ;;		On entry : 0/0
  5045 ;;		On exit  : 0/0
  5046 ;;		Unchanged: 0/0
  5047 ;; Data sizes:     COMMON   BANK0   BANK1   BANK3   BANK2
  5048 ;;      Params:         0       0       8       0       0
  5049 ;;      Locals:         0       0      13       0       0
  5050 ;;      Temps:          0       5       0       0       0
  5051 ;;      Totals:         0       5      21       0       0
  5052 ;;Total ram usage:       26 bytes
  5053 ;; Hardware stack levels used: 1
  5054 ;; This function calls:
  5055 ;;		Nothing
  5056 ;; This function is called by:
  5057 ;;		_main
  5058 ;; This function uses a non-reentrant model
  5059 ;;
  5060                           
  5061                           
  5062                           ;psect for function ___fldiv
  5063  0B32                     ___fldiv:
  5064  0B32                     l1905:	
  5065                           ;incstack = 0
  5066                           ; Regs used in ___fldiv: [wreg+status,2+status,0+btemp+1]
  5067                           
  5068  0B32  1683               	bsf	3,5	;RP0=1, select bank1
  5069  0B33  1303               	bcf	3,6	;RP1=0, select bank1
  5070  0B34  0827               	movf	(___fldiv@b^(0+128)+3),w
  5071  0B35  3980               	andlw	128
  5072  0B36  1283               	bcf	3,5	;RP0=0, select bank0
  5073  0B37  1303               	bcf	3,6	;RP1=0, select bank0
  5074  0B38  00E9               	movwf	??___fldiv
  5075  0B39  0869               	movf	??___fldiv,w
  5076  0B3A  1683               	bsf	3,5	;RP0=1, select bank1
  5077  0B3B  1303               	bcf	3,6	;RP1=0, select bank1
  5078  0B3C  00AC               	movwf	___fldiv@sign^(0+128)
  5079  0B3D                     l1907:
  5080  0B3D  0827               	movf	(___fldiv@b^(0+128)+3),w
  5081  0B3E  1283               	bcf	3,5	;RP0=0, select bank0
  5082  0B3F  1303               	bcf	3,6	;RP1=0, select bank0
  5083  0B40  00E9               	movwf	??___fldiv
  5084  0B41  0769               	addwf	??___fldiv,w
  5085  0B42  00EA               	movwf	??___fldiv+1
  5086  0B43  086A               	movf	??___fldiv+1,w
  5087  0B44  1683               	bsf	3,5	;RP0=1, select bank1
  5088  0B45  1303               	bcf	3,6	;RP1=0, select bank1
  5089  0B46  00B3               	movwf	___fldiv@bexp^(0+128)
  5090  0B47                     l1909:
  5091  0B47  1FA6               	btfss	(___fldiv@b^(0+128)+2),7
  5092  0B48  2B4A               	goto	u2751
  5093  0B49  2B4B               	goto	u2750
  5094  0B4A                     u2751:
  5095  0B4A  2B4C               	goto	l1913
  5096  0B4B                     u2750:
  5097  0B4B                     l1911:
  5098  0B4B  1433               	bsf	___fldiv@bexp^(0+128),0
  5099  0B4C                     l1913:
  5100  0B4C  0833               	movf	___fldiv@bexp^(0+128),w
  5101  0B4D  1903               	btfsc	3,2
  5102  0B4E  2B50               	goto	u2761
  5103  0B4F  2B51               	goto	u2760
  5104  0B50                     u2761:
  5105  0B50  2B61               	goto	l1923
  5106  0B51                     u2760:
  5107  0B51                     l1915:
  5108  0B51  0A33               	incf	___fldiv@bexp^(0+128),w
  5109  0B52  1D03               	btfss	3,2
  5110  0B53  2B55               	goto	u2771
  5111  0B54  2B56               	goto	u2770
  5112  0B55                     u2771:
  5113  0B55  2B5E               	goto	l1919
  5114  0B56                     u2770:
  5115  0B56                     l1917:
  5116  0B56  3000               	movlw	0
  5117  0B57  00A7               	movwf	(___fldiv@b+3)^(0+128)
  5118  0B58  3000               	movlw	0
  5119  0B59  00A6               	movwf	(___fldiv@b+2)^(0+128)
  5120  0B5A  3000               	movlw	0
  5121  0B5B  00A5               	movwf	(___fldiv@b+1)^(0+128)
  5122  0B5C  3000               	movlw	0
  5123  0B5D  00A4               	movwf	___fldiv@b^(0+128)
  5124  0B5E                     l1919:
  5125  0B5E  17A6               	bsf	(___fldiv@b^(0+128)+2),7
  5126  0B5F                     l1921:
  5127  0B5F  01A7               	clrf	(___fldiv@b^(0+128)+3)
  5128  0B60  2B69               	goto	l1925
  5129  0B61                     l1923:
  5130  0B61  3000               	movlw	0
  5131  0B62  00A7               	movwf	(___fldiv@b+3)^(0+128)
  5132  0B63  3000               	movlw	0
  5133  0B64  00A6               	movwf	(___fldiv@b+2)^(0+128)
  5134  0B65  3000               	movlw	0
  5135  0B66  00A5               	movwf	(___fldiv@b+1)^(0+128)
  5136  0B67  3000               	movlw	0
  5137  0B68  00A4               	movwf	___fldiv@b^(0+128)
  5138  0B69                     l1925:
  5139  0B69  0823               	movf	(___fldiv@a^(0+128)+3),w
  5140  0B6A  3980               	andlw	128
  5141  0B6B  1283               	bcf	3,5	;RP0=0, select bank0
  5142  0B6C  1303               	bcf	3,6	;RP1=0, select bank0
  5143  0B6D  00E9               	movwf	??___fldiv
  5144  0B6E  0869               	movf	??___fldiv,w
  5145  0B6F  1683               	bsf	3,5	;RP0=1, select bank1
  5146  0B70  1303               	bcf	3,6	;RP1=0, select bank1
  5147  0B71  06AC               	xorwf	___fldiv@sign^(0+128),f
  5148  0B72                     l1927:
  5149  0B72  0823               	movf	(___fldiv@a^(0+128)+3),w
  5150  0B73  1283               	bcf	3,5	;RP0=0, select bank0
  5151  0B74  1303               	bcf	3,6	;RP1=0, select bank0
  5152  0B75  00E9               	movwf	??___fldiv
  5153  0B76  0769               	addwf	??___fldiv,w
  5154  0B77  00EA               	movwf	??___fldiv+1
  5155  0B78  086A               	movf	??___fldiv+1,w
  5156  0B79  1683               	bsf	3,5	;RP0=1, select bank1
  5157  0B7A  1303               	bcf	3,6	;RP1=0, select bank1
  5158  0B7B  00B4               	movwf	___fldiv@aexp^(0+128)
  5159  0B7C                     l1929:
  5160  0B7C  1FA2               	btfss	(___fldiv@a^(0+128)+2),7
  5161  0B7D  2B7F               	goto	u2781
  5162  0B7E  2B80               	goto	u2780
  5163  0B7F                     u2781:
  5164  0B7F  2B81               	goto	l1933
  5165  0B80                     u2780:
  5166  0B80                     l1931:
  5167  0B80  1434               	bsf	___fldiv@aexp^(0+128),0
  5168  0B81                     l1933:
  5169  0B81  0834               	movf	___fldiv@aexp^(0+128),w
  5170  0B82  1903               	btfsc	3,2
  5171  0B83  2B85               	goto	u2791
  5172  0B84  2B86               	goto	u2790
  5173  0B85                     u2791:
  5174  0B85  2B96               	goto	l1943
  5175  0B86                     u2790:
  5176  0B86                     l1935:
  5177  0B86  0A34               	incf	___fldiv@aexp^(0+128),w
  5178  0B87  1D03               	btfss	3,2
  5179  0B88  2B8A               	goto	u2801
  5180  0B89  2B8B               	goto	u2800
  5181  0B8A                     u2801:
  5182  0B8A  2B93               	goto	l1939
  5183  0B8B                     u2800:
  5184  0B8B                     l1937:
  5185  0B8B  3000               	movlw	0
  5186  0B8C  00A3               	movwf	(___fldiv@a+3)^(0+128)
  5187  0B8D  3000               	movlw	0
  5188  0B8E  00A2               	movwf	(___fldiv@a+2)^(0+128)
  5189  0B8F  3000               	movlw	0
  5190  0B90  00A1               	movwf	(___fldiv@a+1)^(0+128)
  5191  0B91  3000               	movlw	0
  5192  0B92  00A0               	movwf	___fldiv@a^(0+128)
  5193  0B93                     l1939:
  5194  0B93  17A2               	bsf	(___fldiv@a^(0+128)+2),7
  5195  0B94                     l1941:
  5196  0B94  01A3               	clrf	(___fldiv@a^(0+128)+3)
  5197  0B95  2B9E               	goto	l484
  5198  0B96                     l1943:
  5199  0B96  3000               	movlw	0
  5200  0B97  00A3               	movwf	(___fldiv@a+3)^(0+128)
  5201  0B98  3000               	movlw	0
  5202  0B99  00A2               	movwf	(___fldiv@a+2)^(0+128)
  5203  0B9A  3000               	movlw	0
  5204  0B9B  00A1               	movwf	(___fldiv@a+1)^(0+128)
  5205  0B9C  3000               	movlw	0
  5206  0B9D  00A0               	movwf	___fldiv@a^(0+128)
  5207  0B9E                     l484:
  5208  0B9E  0823               	movf	(___fldiv@a+3)^(0+128),w
  5209  0B9F  0422               	iorwf	(___fldiv@a+2)^(0+128),w
  5210  0BA0  0421               	iorwf	(___fldiv@a+1)^(0+128),w
  5211  0BA1  0420               	iorwf	___fldiv@a^(0+128),w
  5212  0BA2  1D03               	skipz
  5213  0BA3  2BA5               	goto	u2811
  5214  0BA4  2BA6               	goto	u2810
  5215  0BA5                     u2811:
  5216  0BA5  2BC3               	goto	l1953
  5217  0BA6                     u2810:
  5218  0BA6                     l1945:
  5219  0BA6  3000               	movlw	0
  5220  0BA7  00A7               	movwf	(___fldiv@b+3)^(0+128)
  5221  0BA8  3000               	movlw	0
  5222  0BA9  00A6               	movwf	(___fldiv@b+2)^(0+128)
  5223  0BAA  3000               	movlw	0
  5224  0BAB  00A5               	movwf	(___fldiv@b+1)^(0+128)
  5225  0BAC  3000               	movlw	0
  5226  0BAD  00A4               	movwf	___fldiv@b^(0+128)
  5227  0BAE  3080               	movlw	128
  5228  0BAF  04A6               	iorwf	(___fldiv@b^(0+128)+2),f
  5229  0BB0  307F               	movlw	127
  5230  0BB1  04A7               	iorwf	((___fldiv@b+1)^(0+128)+2),f
  5231  0BB2                     l1947:
  5232  0BB2  082C               	movf	___fldiv@sign^(0+128),w
  5233  0BB3  1283               	bcf	3,5	;RP0=0, select bank0
  5234  0BB4  1303               	bcf	3,6	;RP1=0, select bank0
  5235  0BB5  00E9               	movwf	??___fldiv
  5236  0BB6  0869               	movf	??___fldiv,w
  5237  0BB7  1683               	bsf	3,5	;RP0=1, select bank1
  5238  0BB8  1303               	bcf	3,6	;RP1=0, select bank1
  5239  0BB9  04A7               	iorwf	(___fldiv@b^(0+128)+3),f
  5240  0BBA                     l1949:
  5241  0BBA  0827               	movf	(___fldiv@b+3)^(0+128),w
  5242  0BBB  00A3               	movwf	(?___fldiv+3)^(0+128)
  5243  0BBC  0826               	movf	(___fldiv@b+2)^(0+128),w
  5244  0BBD  00A2               	movwf	(?___fldiv+2)^(0+128)
  5245  0BBE  0825               	movf	(___fldiv@b+1)^(0+128),w
  5246  0BBF  00A1               	movwf	(?___fldiv+1)^(0+128)
  5247  0BC0  0824               	movf	___fldiv@b^(0+128),w
  5248  0BC1  00A0               	movwf	?___fldiv^(0+128)
  5249  0BC2  2D94               	goto	l486
  5250  0BC3                     l1953:
  5251  0BC3  0833               	movf	___fldiv@bexp^(0+128),w
  5252  0BC4  1D03               	btfss	3,2
  5253  0BC5  2BC7               	goto	u2821
  5254  0BC6  2BC8               	goto	u2820
  5255  0BC7                     u2821:
  5256  0BC7  2BD1               	goto	l1959
  5257  0BC8                     u2820:
  5258  0BC8                     l1955:
  5259  0BC8  3000               	movlw	0
  5260  0BC9  00A3               	movwf	(?___fldiv+3)^(0+128)
  5261  0BCA  3000               	movlw	0
  5262  0BCB  00A2               	movwf	(?___fldiv+2)^(0+128)
  5263  0BCC  3000               	movlw	0
  5264  0BCD  00A1               	movwf	(?___fldiv+1)^(0+128)
  5265  0BCE  3000               	movlw	0
  5266  0BCF  00A0               	movwf	?___fldiv^(0+128)
  5267  0BD0  2D94               	goto	l486
  5268  0BD1                     l1959:
  5269  0BD1  0833               	movf	___fldiv@bexp^(0+128),w
  5270  0BD2  1283               	bcf	3,5	;RP0=0, select bank0
  5271  0BD3  1303               	bcf	3,6	;RP1=0, select bank0
  5272  0BD4  00E9               	movwf	??___fldiv
  5273  0BD5  01EA               	clrf	??___fldiv+1
  5274  0BD6  086A               	movf	??___fldiv+1,w
  5275  0BD7  00EC               	movwf	??___fldiv+3
  5276  0BD8  1683               	bsf	3,5	;RP0=1, select bank1
  5277  0BD9  1303               	bcf	3,6	;RP1=0, select bank1
  5278  0BDA  0834               	movf	___fldiv@aexp^(0+128),w
  5279  0BDB  1283               	bcf	3,5	;RP0=0, select bank0
  5280  0BDC  1303               	bcf	3,6	;RP1=0, select bank0
  5281  0BDD  0269               	subwf	??___fldiv,w
  5282  0BDE  00EB               	movwf	??___fldiv+2
  5283  0BDF  1C03               	skipc
  5284  0BE0  03EC               	decf	??___fldiv+3,f
  5285  0BE1  086B               	movf	??___fldiv+2,w
  5286  0BE2  3E7F               	addlw	127
  5287  0BE3  1683               	bsf	3,5	;RP0=1, select bank1
  5288  0BE4  1303               	bcf	3,6	;RP1=0, select bank1
  5289  0BE5  00AD               	movwf	___fldiv@new_exp^(0+128)
  5290  0BE6  1283               	bcf	3,5	;RP0=0, select bank0
  5291  0BE7  1303               	bcf	3,6	;RP1=0, select bank0
  5292  0BE8  086C               	movf	??___fldiv+3,w
  5293  0BE9  1803               	skipnc
  5294  0BEA  3E01               	addlw	1
  5295  0BEB  3E00               	addlw	0
  5296  0BEC  1683               	bsf	3,5	;RP0=1, select bank1
  5297  0BED  1303               	bcf	3,6	;RP1=0, select bank1
  5298  0BEE  00AE               	movwf	(___fldiv@new_exp+1)^(0+128)
  5299  0BEF                     l1961:
  5300  0BEF  0827               	movf	(___fldiv@b+3)^(0+128),w
  5301  0BF0  00AB               	movwf	(___fldiv@rem+3)^(0+128)
  5302  0BF1  0826               	movf	(___fldiv@b+2)^(0+128),w
  5303  0BF2  00AA               	movwf	(___fldiv@rem+2)^(0+128)
  5304  0BF3  0825               	movf	(___fldiv@b+1)^(0+128),w
  5305  0BF4  00A9               	movwf	(___fldiv@rem+1)^(0+128)
  5306  0BF5  0824               	movf	___fldiv@b^(0+128),w
  5307  0BF6  00A8               	movwf	___fldiv@rem^(0+128)
  5308  0BF7                     l1963:
  5309  0BF7  3000               	movlw	0
  5310  0BF8  00A7               	movwf	(___fldiv@b+3)^(0+128)
  5311  0BF9  3000               	movlw	0
  5312  0BFA  00A6               	movwf	(___fldiv@b+2)^(0+128)
  5313  0BFB  3000               	movlw	0
  5314  0BFC  00A5               	movwf	(___fldiv@b+1)^(0+128)
  5315  0BFD  3000               	movlw	0
  5316  0BFE  00A4               	movwf	___fldiv@b^(0+128)
  5317  0BFF                     l1965:
  5318  0BFF  3000               	movlw	0
  5319  0C00  00B2               	movwf	(___fldiv@grs+3)^(0+128)
  5320  0C01  3000               	movlw	0
  5321  0C02  00B1               	movwf	(___fldiv@grs+2)^(0+128)
  5322  0C03  3000               	movlw	0
  5323  0C04  00B0               	movwf	(___fldiv@grs+1)^(0+128)
  5324  0C05  3000               	movlw	0
  5325  0C06  00AF               	movwf	___fldiv@grs^(0+128)
  5326  0C07                     l1967:
  5327  0C07  01B4               	clrf	___fldiv@aexp^(0+128)
  5328  0C08  2C6B               	goto	l1987
  5329  0C09                     l1969:
  5330  0C09  0834               	movf	___fldiv@aexp^(0+128),w
  5331  0C0A  1903               	btfsc	3,2
  5332  0C0B  2C0D               	goto	u2831
  5333  0C0C  2C0E               	goto	u2830
  5334  0C0D                     u2831:
  5335  0C0D  2C40               	goto	l1979
  5336  0C0E                     u2830:
  5337  0C0E                     l1971:
  5338  0C0E  3001               	movlw	1
  5339  0C0F  1283               	bcf	3,5	;RP0=0, select bank0
  5340  0C10  1303               	bcf	3,6	;RP1=0, select bank0
  5341  0C11  00E9               	movwf	??___fldiv
  5342  0C12                     u2845:
  5343  0C12  1003               	clrc
  5344  0C13  1683               	bsf	3,5	;RP0=1, select bank1
  5345  0C14  1303               	bcf	3,6	;RP1=0, select bank1
  5346  0C15  0DA8               	rlf	___fldiv@rem^(0+128),f
  5347  0C16  0DA9               	rlf	(___fldiv@rem+1)^(0+128),f
  5348  0C17  0DAA               	rlf	(___fldiv@rem+2)^(0+128),f
  5349  0C18  0DAB               	rlf	(___fldiv@rem+3)^(0+128),f
  5350  0C19  1283               	bcf	3,5	;RP0=0, select bank0
  5351  0C1A  1303               	bcf	3,6	;RP1=0, select bank0
  5352  0C1B  0BE9               	decfsz	??___fldiv,f
  5353  0C1C  2C12               	goto	u2845
  5354  0C1D  3001               	movlw	1
  5355  0C1E  00E9               	movwf	??___fldiv
  5356  0C1F                     u2855:
  5357  0C1F  1003               	clrc
  5358  0C20  1683               	bsf	3,5	;RP0=1, select bank1
  5359  0C21  1303               	bcf	3,6	;RP1=0, select bank1
  5360  0C22  0DA4               	rlf	___fldiv@b^(0+128),f
  5361  0C23  0DA5               	rlf	(___fldiv@b+1)^(0+128),f
  5362  0C24  0DA6               	rlf	(___fldiv@b+2)^(0+128),f
  5363  0C25  0DA7               	rlf	(___fldiv@b+3)^(0+128),f
  5364  0C26  1283               	bcf	3,5	;RP0=0, select bank0
  5365  0C27  1303               	bcf	3,6	;RP1=0, select bank0
  5366  0C28  0BE9               	decfsz	??___fldiv,f
  5367  0C29  2C1F               	goto	u2855
  5368  0C2A                     l1973:
  5369  0C2A  1683               	bsf	3,5	;RP0=1, select bank1
  5370  0C2B  1303               	bcf	3,6	;RP1=0, select bank1
  5371  0C2C  1FB2               	btfss	(___fldiv@grs+3)^(0+128),7
  5372  0C2D  2C2F               	goto	u2861
  5373  0C2E  2C30               	goto	u2860
  5374  0C2F                     u2861:
  5375  0C2F  2C31               	goto	l1977
  5376  0C30                     u2860:
  5377  0C30                     l1975:
  5378  0C30  1424               	bsf	___fldiv@b^(0+128),0
  5379  0C31                     l1977:
  5380  0C31  3001               	movlw	1
  5381  0C32  1283               	bcf	3,5	;RP0=0, select bank0
  5382  0C33  1303               	bcf	3,6	;RP1=0, select bank0
  5383  0C34  00E9               	movwf	??___fldiv
  5384  0C35                     u2875:
  5385  0C35  1003               	clrc
  5386  0C36  1683               	bsf	3,5	;RP0=1, select bank1
  5387  0C37  1303               	bcf	3,6	;RP1=0, select bank1
  5388  0C38  0DAF               	rlf	___fldiv@grs^(0+128),f
  5389  0C39  0DB0               	rlf	(___fldiv@grs+1)^(0+128),f
  5390  0C3A  0DB1               	rlf	(___fldiv@grs+2)^(0+128),f
  5391  0C3B  0DB2               	rlf	(___fldiv@grs+3)^(0+128),f
  5392  0C3C  1283               	bcf	3,5	;RP0=0, select bank0
  5393  0C3D  1303               	bcf	3,6	;RP1=0, select bank0
  5394  0C3E  0BE9               	decfsz	??___fldiv,f
  5395  0C3F  2C35               	goto	u2875
  5396  0C40                     l1979:
  5397  0C40  1683               	bsf	3,5	;RP0=1, select bank1
  5398  0C41  1303               	bcf	3,6	;RP1=0, select bank1
  5399  0C42  0823               	movf	(___fldiv@a+3)^(0+128),w
  5400  0C43  022B               	subwf	(___fldiv@rem+3)^(0+128),w
  5401  0C44  1D03               	skipz
  5402  0C45  2C50               	goto	u2885
  5403  0C46  0822               	movf	(___fldiv@a+2)^(0+128),w
  5404  0C47  022A               	subwf	(___fldiv@rem+2)^(0+128),w
  5405  0C48  1D03               	skipz
  5406  0C49  2C50               	goto	u2885
  5407  0C4A  0821               	movf	(___fldiv@a+1)^(0+128),w
  5408  0C4B  0229               	subwf	(___fldiv@rem+1)^(0+128),w
  5409  0C4C  1D03               	skipz
  5410  0C4D  2C50               	goto	u2885
  5411  0C4E  0820               	movf	___fldiv@a^(0+128),w
  5412  0C4F  0228               	subwf	___fldiv@rem^(0+128),w
  5413  0C50                     u2885:
  5414  0C50  1C03               	skipc
  5415  0C51  2C53               	goto	u2881
  5416  0C52  2C54               	goto	u2880
  5417  0C53                     u2881:
  5418  0C53  2C63               	goto	l1985
  5419  0C54                     u2880:
  5420  0C54                     l1981:
  5421  0C54  1732               	bsf	(___fldiv@grs^(0+128)+3),6
  5422  0C55                     l1983:
  5423  0C55  0820               	movf	___fldiv@a^(0+128),w
  5424  0C56  02A8               	subwf	___fldiv@rem^(0+128),f
  5425  0C57  0821               	movf	(___fldiv@a+1)^(0+128),w
  5426  0C58  1C03               	skipc
  5427  0C59  0F21               	incfsz	(___fldiv@a+1)^(0+128),w
  5428  0C5A  02A9               	subwf	(___fldiv@rem+1)^(0+128),f
  5429  0C5B  0822               	movf	(___fldiv@a+2)^(0+128),w
  5430  0C5C  1C03               	skipc
  5431  0C5D  0F22               	incfsz	(___fldiv@a+2)^(0+128),w
  5432  0C5E  02AA               	subwf	(___fldiv@rem+2)^(0+128),f
  5433  0C5F  0823               	movf	(___fldiv@a+3)^(0+128),w
  5434  0C60  1C03               	skipc
  5435  0C61  0F23               	incfsz	(___fldiv@a+3)^(0+128),w
  5436  0C62  02AB               	subwf	(___fldiv@rem+3)^(0+128),f
  5437  0C63                     l1985:
  5438  0C63  3001               	movlw	1
  5439  0C64  1283               	bcf	3,5	;RP0=0, select bank0
  5440  0C65  1303               	bcf	3,6	;RP1=0, select bank0
  5441  0C66  00E9               	movwf	??___fldiv
  5442  0C67  0869               	movf	??___fldiv,w
  5443  0C68  1683               	bsf	3,5	;RP0=1, select bank1
  5444  0C69  1303               	bcf	3,6	;RP1=0, select bank1
  5445  0C6A  07B4               	addwf	___fldiv@aexp^(0+128),f
  5446  0C6B                     l1987:
  5447  0C6B  301A               	movlw	26
  5448  0C6C  0234               	subwf	___fldiv@aexp^(0+128),w
  5449  0C6D  1C03               	skipc
  5450  0C6E  2C70               	goto	u2891
  5451  0C6F  2C71               	goto	u2890
  5452  0C70                     u2891:
  5453  0C70  2C09               	goto	l1969
  5454  0C71                     u2890:
  5455  0C71                     l1989:
  5456  0C71  082B               	movf	(___fldiv@rem+3)^(0+128),w
  5457  0C72  042A               	iorwf	(___fldiv@rem+2)^(0+128),w
  5458  0C73  0429               	iorwf	(___fldiv@rem+1)^(0+128),w
  5459  0C74  0428               	iorwf	___fldiv@rem^(0+128),w
  5460  0C75  1903               	skipnz
  5461  0C76  2C78               	goto	u2901
  5462  0C77  2C79               	goto	u2900
  5463  0C78                     u2901:
  5464  0C78  2CA8               	goto	l2003
  5465  0C79                     u2900:
  5466  0C79                     l1991:
  5467  0C79  142F               	bsf	___fldiv@grs^(0+128),0
  5468  0C7A  2CA8               	goto	l2003
  5469  0C7B                     l1993:
  5470  0C7B  3001               	movlw	1
  5471  0C7C  1283               	bcf	3,5	;RP0=0, select bank0
  5472  0C7D  1303               	bcf	3,6	;RP1=0, select bank0
  5473  0C7E  00E9               	movwf	??___fldiv
  5474  0C7F                     u2915:
  5475  0C7F  1003               	clrc
  5476  0C80  1683               	bsf	3,5	;RP0=1, select bank1
  5477  0C81  1303               	bcf	3,6	;RP1=0, select bank1
  5478  0C82  0DA4               	rlf	___fldiv@b^(0+128),f
  5479  0C83  0DA5               	rlf	(___fldiv@b+1)^(0+128),f
  5480  0C84  0DA6               	rlf	(___fldiv@b+2)^(0+128),f
  5481  0C85  0DA7               	rlf	(___fldiv@b+3)^(0+128),f
  5482  0C86  1283               	bcf	3,5	;RP0=0, select bank0
  5483  0C87  1303               	bcf	3,6	;RP1=0, select bank0
  5484  0C88  0BE9               	decfsz	??___fldiv,f
  5485  0C89  2C7F               	goto	u2915
  5486  0C8A                     l1995:
  5487  0C8A  1683               	bsf	3,5	;RP0=1, select bank1
  5488  0C8B  1303               	bcf	3,6	;RP1=0, select bank1
  5489  0C8C  1FB2               	btfss	(___fldiv@grs+3)^(0+128),7
  5490  0C8D  2C8F               	goto	u2921
  5491  0C8E  2C90               	goto	u2920
  5492  0C8F                     u2921:
  5493  0C8F  2C91               	goto	l1999
  5494  0C90                     u2920:
  5495  0C90                     l1997:
  5496  0C90  1424               	bsf	___fldiv@b^(0+128),0
  5497  0C91                     l1999:
  5498  0C91  3001               	movlw	1
  5499  0C92  1283               	bcf	3,5	;RP0=0, select bank0
  5500  0C93  1303               	bcf	3,6	;RP1=0, select bank0
  5501  0C94  00E9               	movwf	??___fldiv
  5502  0C95                     u2935:
  5503  0C95  1003               	clrc
  5504  0C96  1683               	bsf	3,5	;RP0=1, select bank1
  5505  0C97  1303               	bcf	3,6	;RP1=0, select bank1
  5506  0C98  0DAF               	rlf	___fldiv@grs^(0+128),f
  5507  0C99  0DB0               	rlf	(___fldiv@grs+1)^(0+128),f
  5508  0C9A  0DB1               	rlf	(___fldiv@grs+2)^(0+128),f
  5509  0C9B  0DB2               	rlf	(___fldiv@grs+3)^(0+128),f
  5510  0C9C  1283               	bcf	3,5	;RP0=0, select bank0
  5511  0C9D  1303               	bcf	3,6	;RP1=0, select bank0
  5512  0C9E  0BE9               	decfsz	??___fldiv,f
  5513  0C9F  2C95               	goto	u2935
  5514  0CA0                     l2001:
  5515  0CA0  30FF               	movlw	255
  5516  0CA1  1683               	bsf	3,5	;RP0=1, select bank1
  5517  0CA2  1303               	bcf	3,6	;RP1=0, select bank1
  5518  0CA3  07AD               	addwf	___fldiv@new_exp^(0+128),f
  5519  0CA4  1803               	skipnc
  5520  0CA5  0AAE               	incf	(___fldiv@new_exp+1)^(0+128),f
  5521  0CA6  30FF               	movlw	255
  5522  0CA7  07AE               	addwf	(___fldiv@new_exp+1)^(0+128),f
  5523  0CA8                     l2003:
  5524  0CA8  1FA6               	btfss	(___fldiv@b+2)^(0+128),7
  5525  0CA9  2CAB               	goto	u2941
  5526  0CAA  2CAC               	goto	u2940
  5527  0CAB                     u2941:
  5528  0CAB  2C7B               	goto	l1993
  5529  0CAC                     u2940:
  5530  0CAC                     l2005:
  5531  0CAC  01B4               	clrf	___fldiv@aexp^(0+128)
  5532  0CAD                     l2007:
  5533  0CAD  1FB2               	btfss	(___fldiv@grs+3)^(0+128),7
  5534  0CAE  2CB0               	goto	u2951
  5535  0CAF  2CB1               	goto	u2950
  5536  0CB0                     u2951:
  5537  0CB0  2CDF               	goto	l2015
  5538  0CB1                     u2950:
  5539  0CB1                     l2009:
  5540  0CB1  30FF               	movlw	255
  5541  0CB2  052F               	andwf	___fldiv@grs^(0+128),w
  5542  0CB3  1283               	bcf	3,5	;RP0=0, select bank0
  5543  0CB4  1303               	bcf	3,6	;RP1=0, select bank0
  5544  0CB5  00E9               	movwf	??___fldiv
  5545  0CB6  30FF               	movlw	255
  5546  0CB7  1683               	bsf	3,5	;RP0=1, select bank1
  5547  0CB8  1303               	bcf	3,6	;RP1=0, select bank1
  5548  0CB9  0530               	andwf	(___fldiv@grs+1)^(0+128),w
  5549  0CBA  1283               	bcf	3,5	;RP0=0, select bank0
  5550  0CBB  1303               	bcf	3,6	;RP1=0, select bank0
  5551  0CBC  00EA               	movwf	??___fldiv+1
  5552  0CBD  30FF               	movlw	255
  5553  0CBE  1683               	bsf	3,5	;RP0=1, select bank1
  5554  0CBF  1303               	bcf	3,6	;RP1=0, select bank1
  5555  0CC0  0531               	andwf	(___fldiv@grs+2)^(0+128),w
  5556  0CC1  1283               	bcf	3,5	;RP0=0, select bank0
  5557  0CC2  1303               	bcf	3,6	;RP1=0, select bank0
  5558  0CC3  00EB               	movwf	??___fldiv+2
  5559  0CC4  307F               	movlw	127
  5560  0CC5  1683               	bsf	3,5	;RP0=1, select bank1
  5561  0CC6  1303               	bcf	3,6	;RP1=0, select bank1
  5562  0CC7  0532               	andwf	(___fldiv@grs+3)^(0+128),w
  5563  0CC8  1283               	bcf	3,5	;RP0=0, select bank0
  5564  0CC9  1303               	bcf	3,6	;RP1=0, select bank0
  5565  0CCA  00EC               	movwf	??___fldiv+3
  5566  0CCB  086C               	movf	??___fldiv+3,w
  5567  0CCC  046B               	iorwf	??___fldiv+2,w
  5568  0CCD  046A               	iorwf	??___fldiv+1,w
  5569  0CCE  0469               	iorwf	??___fldiv,w
  5570  0CCF  1903               	skipnz
  5571  0CD0  2CD2               	goto	u2961
  5572  0CD1  2CD3               	goto	u2960
  5573  0CD2                     u2961:
  5574  0CD2  2CD8               	goto	l500
  5575  0CD3                     u2960:
  5576  0CD3                     l2011:
  5577  0CD3  1683               	bsf	3,5	;RP0=1, select bank1
  5578  0CD4  1303               	bcf	3,6	;RP1=0, select bank1
  5579  0CD5  01B4               	clrf	___fldiv@aexp^(0+128)
  5580  0CD6  0AB4               	incf	___fldiv@aexp^(0+128),f
  5581  0CD7  2CDF               	goto	l2015
  5582  0CD8                     l500:
  5583  0CD8  1683               	bsf	3,5	;RP0=1, select bank1
  5584  0CD9  1303               	bcf	3,6	;RP1=0, select bank1
  5585  0CDA  1C24               	btfss	___fldiv@b^(0+128),0
  5586  0CDB  2CDD               	goto	u2971
  5587  0CDC  2CDE               	goto	u2970
  5588  0CDD                     u2971:
  5589  0CDD  2CDF               	goto	l2015
  5590  0CDE                     u2970:
  5591  0CDE  2CD3               	goto	l2011
  5592  0CDF                     l2015:
  5593  0CDF  0834               	movf	___fldiv@aexp^(0+128),w
  5594  0CE0  1903               	btfsc	3,2
  5595  0CE1  2CE3               	goto	u2981
  5596  0CE2  2CE4               	goto	u2980
  5597  0CE3                     u2981:
  5598  0CE3  2D31               	goto	l2025
  5599  0CE4                     u2980:
  5600  0CE4                     l2017:
  5601  0CE4  3001               	movlw	1
  5602  0CE5  07A4               	addwf	___fldiv@b^(0+128),f
  5603  0CE6  3000               	movlw	0
  5604  0CE7  1803               	skipnc
  5605  0CE8  3001               	movlw	1
  5606  0CE9  07A5               	addwf	(___fldiv@b+1)^(0+128),f
  5607  0CEA  3000               	movlw	0
  5608  0CEB  1803               	skipnc
  5609  0CEC  3001               	movlw	1
  5610  0CED  07A6               	addwf	(___fldiv@b+2)^(0+128),f
  5611  0CEE  3000               	movlw	0
  5612  0CEF  1803               	skipnc
  5613  0CF0  3001               	movlw	1
  5614  0CF1  07A7               	addwf	(___fldiv@b+3)^(0+128),f
  5615  0CF2                     l2019:
  5616  0CF2  1C27               	btfss	(___fldiv@b+3)^(0+128),0
  5617  0CF3  2CF5               	goto	u2991
  5618  0CF4  2CF6               	goto	u2990
  5619  0CF5                     u2991:
  5620  0CF5  2D31               	goto	l2025
  5621  0CF6                     u2990:
  5622  0CF6                     l2021:
  5623  0CF6  0824               	movf	___fldiv@b^(0+128),w
  5624  0CF7  1283               	bcf	3,5	;RP0=0, select bank0
  5625  0CF8  1303               	bcf	3,6	;RP1=0, select bank0
  5626  0CF9  00E9               	movwf	??___fldiv
  5627  0CFA  1683               	bsf	3,5	;RP0=1, select bank1
  5628  0CFB  1303               	bcf	3,6	;RP1=0, select bank1
  5629  0CFC  0825               	movf	(___fldiv@b+1)^(0+128),w
  5630  0CFD  1283               	bcf	3,5	;RP0=0, select bank0
  5631  0CFE  1303               	bcf	3,6	;RP1=0, select bank0
  5632  0CFF  00EA               	movwf	??___fldiv+1
  5633  0D00  1683               	bsf	3,5	;RP0=1, select bank1
  5634  0D01  1303               	bcf	3,6	;RP1=0, select bank1
  5635  0D02  0826               	movf	(___fldiv@b+2)^(0+128),w
  5636  0D03  1283               	bcf	3,5	;RP0=0, select bank0
  5637  0D04  1303               	bcf	3,6	;RP1=0, select bank0
  5638  0D05  00EB               	movwf	??___fldiv+2
  5639  0D06  1683               	bsf	3,5	;RP0=1, select bank1
  5640  0D07  1303               	bcf	3,6	;RP1=0, select bank1
  5641  0D08  0827               	movf	(___fldiv@b+3)^(0+128),w
  5642  0D09  1283               	bcf	3,5	;RP0=0, select bank0
  5643  0D0A  1303               	bcf	3,6	;RP1=0, select bank0
  5644  0D0B  00EC               	movwf	??___fldiv+3
  5645  0D0C  3001               	movlw	1
  5646  0D0D  00ED               	movwf	??___fldiv+4
  5647  0D0E                     u3005:
  5648  0D0E  0D6C               	rlf	??___fldiv+3,w
  5649  0D0F  0CEC               	rrf	??___fldiv+3,f
  5650  0D10  0CEB               	rrf	??___fldiv+2,f
  5651  0D11  0CEA               	rrf	??___fldiv+1,f
  5652  0D12  0CE9               	rrf	??___fldiv,f
  5653  0D13                     u3000:
  5654  0D13  0BED               	decfsz	??___fldiv+4,f
  5655  0D14  2D0E               	goto	u3005
  5656  0D15  086C               	movf	??___fldiv+3,w
  5657  0D16  1683               	bsf	3,5	;RP0=1, select bank1
  5658  0D17  1303               	bcf	3,6	;RP1=0, select bank1
  5659  0D18  00A7               	movwf	(___fldiv@b+3)^(0+128)
  5660  0D19  1283               	bcf	3,5	;RP0=0, select bank0
  5661  0D1A  1303               	bcf	3,6	;RP1=0, select bank0
  5662  0D1B  086B               	movf	??___fldiv+2,w
  5663  0D1C  1683               	bsf	3,5	;RP0=1, select bank1
  5664  0D1D  1303               	bcf	3,6	;RP1=0, select bank1
  5665  0D1E  00A6               	movwf	(___fldiv@b+2)^(0+128)
  5666  0D1F  1283               	bcf	3,5	;RP0=0, select bank0
  5667  0D20  1303               	bcf	3,6	;RP1=0, select bank0
  5668  0D21  086A               	movf	??___fldiv+1,w
  5669  0D22  1683               	bsf	3,5	;RP0=1, select bank1
  5670  0D23  1303               	bcf	3,6	;RP1=0, select bank1
  5671  0D24  00A5               	movwf	(___fldiv@b+1)^(0+128)
  5672  0D25  1283               	bcf	3,5	;RP0=0, select bank0
  5673  0D26  1303               	bcf	3,6	;RP1=0, select bank0
  5674  0D27  0869               	movf	??___fldiv,w
  5675  0D28  1683               	bsf	3,5	;RP0=1, select bank1
  5676  0D29  1303               	bcf	3,6	;RP1=0, select bank1
  5677  0D2A  00A4               	movwf	___fldiv@b^(0+128)
  5678  0D2B                     l2023:
  5679  0D2B  3001               	movlw	1
  5680  0D2C  07AD               	addwf	___fldiv@new_exp^(0+128),f
  5681  0D2D  1803               	skipnc
  5682  0D2E  0AAE               	incf	(___fldiv@new_exp+1)^(0+128),f
  5683  0D2F  3000               	movlw	0
  5684  0D30  07AE               	addwf	(___fldiv@new_exp+1)^(0+128),f
  5685  0D31                     l2025:
  5686  0D31  082E               	movf	(___fldiv@new_exp+1)^(0+128),w
  5687  0D32  3A80               	xorlw	128
  5688  0D33  00FF               	movwf	btemp+1
  5689  0D34  3080               	movlw	128
  5690  0D35  027F               	subwf	btemp+1,w
  5691  0D36  1D03               	skipz
  5692  0D37  2D3A               	goto	u3015
  5693  0D38  30FF               	movlw	255
  5694  0D39  022D               	subwf	___fldiv@new_exp^(0+128),w
  5695  0D3A                     u3015:
  5696  0D3A  1C03               	skipc
  5697  0D3B  2D3D               	goto	u3011
  5698  0D3C  2D3E               	goto	u3010
  5699  0D3D                     u3011:
  5700  0D3D  2D4C               	goto	l2029
  5701  0D3E                     u3010:
  5702  0D3E                     l2027:
  5703  0D3E  30FF               	movlw	255
  5704  0D3F  1683               	bsf	3,5	;RP0=1, select bank1
  5705  0D40  1303               	bcf	3,6	;RP1=0, select bank1
  5706  0D41  00AD               	movwf	___fldiv@new_exp^(0+128)
  5707  0D42  3000               	movlw	0
  5708  0D43  00AE               	movwf	(___fldiv@new_exp^(0+128)+1)
  5709  0D44  3000               	movlw	0
  5710  0D45  00A7               	movwf	(___fldiv@b+3)^(0+128)
  5711  0D46  3000               	movlw	0
  5712  0D47  00A6               	movwf	(___fldiv@b+2)^(0+128)
  5713  0D48  3000               	movlw	0
  5714  0D49  00A5               	movwf	(___fldiv@b+1)^(0+128)
  5715  0D4A  3000               	movlw	0
  5716  0D4B  00A4               	movwf	___fldiv@b^(0+128)
  5717  0D4C                     l2029:
  5718  0D4C  1683               	bsf	3,5	;RP0=1, select bank1
  5719  0D4D  1303               	bcf	3,6	;RP1=0, select bank1
  5720  0D4E  082E               	movf	(___fldiv@new_exp+1)^(0+128),w
  5721  0D4F  3A80               	xorlw	128
  5722  0D50  00FF               	movwf	btemp+1
  5723  0D51  3080               	movlw	128
  5724  0D52  027F               	subwf	btemp+1,w
  5725  0D53  1D03               	skipz
  5726  0D54  2D57               	goto	u3025
  5727  0D55  3001               	movlw	1
  5728  0D56  022D               	subwf	___fldiv@new_exp^(0+128),w
  5729  0D57                     u3025:
  5730  0D57  1803               	skipnc
  5731  0D58  2D5A               	goto	u3021
  5732  0D59  2D5B               	goto	u3020
  5733  0D5A                     u3021:
  5734  0D5A  2D68               	goto	l506
  5735  0D5B                     u3020:
  5736  0D5B                     l2031:
  5737  0D5B  1683               	bsf	3,5	;RP0=1, select bank1
  5738  0D5C  1303               	bcf	3,6	;RP1=0, select bank1
  5739  0D5D  01AD               	clrf	___fldiv@new_exp^(0+128)
  5740  0D5E  01AE               	clrf	(___fldiv@new_exp+1)^(0+128)
  5741  0D5F                     l2033:
  5742  0D5F  3000               	movlw	0
  5743  0D60  00A7               	movwf	(___fldiv@b+3)^(0+128)
  5744  0D61  3000               	movlw	0
  5745  0D62  00A6               	movwf	(___fldiv@b+2)^(0+128)
  5746  0D63  3000               	movlw	0
  5747  0D64  00A5               	movwf	(___fldiv@b+1)^(0+128)
  5748  0D65  3000               	movlw	0
  5749  0D66  00A4               	movwf	___fldiv@b^(0+128)
  5750  0D67                     l2035:
  5751  0D67  01AC               	clrf	___fldiv@sign^(0+128)
  5752  0D68                     l506:
  5753  0D68  1683               	bsf	3,5	;RP0=1, select bank1
  5754  0D69  1303               	bcf	3,6	;RP1=0, select bank1
  5755  0D6A  082D               	movf	___fldiv@new_exp^(0+128),w
  5756  0D6B  1283               	bcf	3,5	;RP0=0, select bank0
  5757  0D6C  1303               	bcf	3,6	;RP1=0, select bank0
  5758  0D6D  00E9               	movwf	??___fldiv
  5759  0D6E  0869               	movf	??___fldiv,w
  5760  0D6F  1683               	bsf	3,5	;RP0=1, select bank1
  5761  0D70  1303               	bcf	3,6	;RP1=0, select bank1
  5762  0D71  00B3               	movwf	___fldiv@bexp^(0+128)
  5763  0D72                     l2037:
  5764  0D72  1C33               	btfss	___fldiv@bexp^(0+128),0
  5765  0D73  2D75               	goto	u3031
  5766  0D74  2D76               	goto	u3030
  5767  0D75                     u3031:
  5768  0D75  2D78               	goto	l2041
  5769  0D76                     u3030:
  5770  0D76                     l2039:
  5771  0D76  17A6               	bsf	(___fldiv@b^(0+128)+2),7
  5772  0D77  2D80               	goto	l508
  5773  0D78                     l2041:
  5774  0D78  307F               	movlw	127
  5775  0D79  1283               	bcf	3,5	;RP0=0, select bank0
  5776  0D7A  1303               	bcf	3,6	;RP1=0, select bank0
  5777  0D7B  00E9               	movwf	??___fldiv
  5778  0D7C  0869               	movf	??___fldiv,w
  5779  0D7D  1683               	bsf	3,5	;RP0=1, select bank1
  5780  0D7E  1303               	bcf	3,6	;RP1=0, select bank1
  5781  0D7F  05A6               	andwf	(___fldiv@b^(0+128)+2),f
  5782  0D80                     l508:
  5783  0D80  0833               	movf	___fldiv@bexp^(0+128),w
  5784  0D81  1283               	bcf	3,5	;RP0=0, select bank0
  5785  0D82  1303               	bcf	3,6	;RP1=0, select bank0
  5786  0D83  00E9               	movwf	??___fldiv
  5787  0D84  1003               	clrc
  5788  0D85  0C69               	rrf	??___fldiv,w
  5789  0D86  00EA               	movwf	??___fldiv+1
  5790  0D87  086A               	movf	??___fldiv+1,w
  5791  0D88  1683               	bsf	3,5	;RP0=1, select bank1
  5792  0D89  1303               	bcf	3,6	;RP1=0, select bank1
  5793  0D8A  00A7               	movwf	(___fldiv@b^(0+128)+3)
  5794  0D8B  082C               	movf	___fldiv@sign^(0+128),w
  5795  0D8C  1283               	bcf	3,5	;RP0=0, select bank0
  5796  0D8D  1303               	bcf	3,6	;RP1=0, select bank0
  5797  0D8E  00E9               	movwf	??___fldiv
  5798  0D8F  0869               	movf	??___fldiv,w
  5799  0D90  1683               	bsf	3,5	;RP0=1, select bank1
  5800  0D91  1303               	bcf	3,6	;RP1=0, select bank1
  5801  0D92  04A7               	iorwf	(___fldiv@b^(0+128)+3),f
  5802  0D93  2BBA               	goto	l1949
  5803  0D94                     l486:
  5804  0D94  0008               	return
  5805  0D95                     __end_of___fldiv:
  5806  007E                     btemp	set	126	;btemp
  5807  007E                     wtemp0	set	126
  5808                           
  5809                           	psect	config
  5810                           
  5811                           ;Config register CONFIG1 @ 0x2007
  5812                           ;	Oscillator Selection bits
  5813                           ;	FOSC = HS, HS oscillator: High-speed crystal/resonator on RA6/OSC2/CLKOUT and RA7/OSC1
      +                          /CLKIN
  5814                           ;	Watchdog Timer Enable bit
  5815                           ;	WDTE = OFF, WDT disabled and can be enabled by SWDTEN bit of the WDTCON register
  5816                           ;	Power-up Timer Enable bit
  5817                           ;	PWRTE = OFF, PWRT disabled
  5818                           ;	RE3/MCLR pin function select bit
  5819                           ;	MCLRE = ON, RE3/MCLR pin function is MCLR
  5820                           ;	Code Protection bit
  5821                           ;	CP = OFF, Program memory code protection is disabled
  5822                           ;	Data Code Protection bit
  5823                           ;	CPD = OFF, Data memory code protection is disabled
  5824                           ;	Brown Out Reset Selection bits
  5825                           ;	BOREN = OFF, BOR disabled
  5826                           ;	Internal External Switchover bit
  5827                           ;	IESO = OFF, Internal/External Switchover mode is disabled
  5828                           ;	Fail-Safe Clock Monitor Enabled bit
  5829                           ;	FCMEN = OFF, Fail-Safe Clock Monitor is disabled
  5830                           ;	Low Voltage Programming Enable bit
  5831                           ;	LVP = OFF, RB3 pin has digital I/O, HV on MCLR must be used for programming
  5832                           ;	In-Circuit Debugger Mode bit
  5833                           ;	DEBUG = 0x1, unprogrammed default
  5834  2007                     	org	8199
  5835  2007  20F2               	dw	8434
  5836                           
  5837                           ;Config register CONFIG2 @ 0x2008
  5838                           ;	Brown-out Reset Selection bit
  5839                           ;	BOR4V = BOR40V, Brown-out Reset set to 4.0V
  5840                           ;	Flash Program Memory Self Write Enable bits
  5841                           ;	WRT = OFF, Write protection off
  5842  2008                     	org	8200
  5843  2008  3FFF               	dw	16383

Data Sizes:
    Strings     0
    Constant    20
    Data        0
    BSS         2
    Persistent  0
    Stack       0

Auto Spaces:
    Space          Size  Autos    Used
    COMMON           14     14      14
    BANK0            80     78      80
    BANK1            80     45      45
    BANK3            96      0       0
    BANK2            96      0       0

Pointer List with Targets:

    frexp@eptr	PTR int  size(1) Largest target is 2
		 -> trunc@expon(BANK0[2]), 


Critical Paths under _main in COMMON

    _main->___flmul
    _main->___lwdiv
    _round->___flmul
    _trunc->_frexp
    _frexp->___fleq
    ___fltol->___flmul
    ___lwdiv->___lwmod
    ___flmul->__Umul8_16
    ___fldiv->___flmul

Critical Paths under _main in BANK0

    _main->___fldiv
    _round->___flsub
    _trunc->___xxtofl
    ___xxtofl->___fltol
    ___fltol->___flmul
    ___flsub->_trunc
    ___fldiv->_round

Critical Paths under _main in BANK1

    _main->___fldiv

Critical Paths under _main in BANK3

    None.

Critical Paths under _main in BANK2

    None.

Call Graph Tables:

 ---------------------------------------------------------------------------------
 (Depth) Function   	        Calls       Base Space   Used Autos Params    Refs
 ---------------------------------------------------------------------------------
 (0) _main                                                24    24      0   14923
                                             21 BANK1     24    24      0
                            ___fldiv
                             ___flge
                            ___flmul
                            ___fltol
                            ___lwdiv
                            ___lwmod
                             ___wmul
                           ___xxtofl
                              _round
 ---------------------------------------------------------------------------------
 (1) _round                                                8     4      4    6935
                                             65 BANK0      8     4      4
                            ___fladd
                            ___flmul (ARG)
                            ___flsub
                              _trunc
 ---------------------------------------------------------------------------------
 (2) _trunc                                               11     7      4    1974
                                             46 BANK0     11     7      4
                            ___fltol
                           ___xxtofl
                              _frexp
 ---------------------------------------------------------------------------------
 (3) _frexp                                                7     2      5     728
                                             12 COMMON     2     2      0
                                              0 BANK0      5     0      5
                             ___fleq
 ---------------------------------------------------------------------------------
 (4) ___fleq                                              12     4      8     368
                                              0 COMMON    12     4      8
 ---------------------------------------------------------------------------------
 (3) ___xxtofl                                            14    10      4     474
                                             32 BANK0     14    10      4
                            ___fltol (ARG)
                             ___wmul (ARG)
 ---------------------------------------------------------------------------------
 (3) ___fltol                                             11     7      4     457
                                             21 BANK0     11     7      4
                            ___flmul (ARG)
 ---------------------------------------------------------------------------------
 (2) ___flsub                                              8     0      8    2485
                                             57 BANK0      8     0      8
                            ___fladd
                              _trunc (ARG)
 ---------------------------------------------------------------------------------
 (3) ___fladd                                             20    12      8    2288
                                              0 COMMON    12     4      8
                                              0 BANK0      8     8      0
 ---------------------------------------------------------------------------------
 (1) ___wmul                                               6     2      4     244
                                              0 COMMON     6     2      4
 ---------------------------------------------------------------------------------
 (1) ___lwmod                                              6     2      4    1071
                                              0 COMMON     6     2      4
 ---------------------------------------------------------------------------------
 (1) ___lwdiv                                              8     4      4     770
                                              6 COMMON     8     4      4
                            ___lwmod (ARG)
 ---------------------------------------------------------------------------------
 (1) ___flmul                                             26    18      8    2721
                                              9 COMMON     5     5      0
                                              0 BANK0     21    13      8
                          __Umul8_16
 ---------------------------------------------------------------------------------
 (2) __Umul8_16                                            9     7      2     799
                                              0 COMMON     9     7      2
 ---------------------------------------------------------------------------------
 (1) ___flge                                              12     4      8     460
                                              0 COMMON    12     4      8
 ---------------------------------------------------------------------------------
 (1) ___fldiv                                             26    18      8    1425
                                             73 BANK0      5     5      0
                                              0 BANK1     21    13      8
                            ___flmul (ARG)
                             ___wmul (ARG)
                           ___xxtofl (ARG)
                              _round (ARG)
 ---------------------------------------------------------------------------------
 Estimated maximum stack depth 4
 ---------------------------------------------------------------------------------

 Call Graph Graphs:

 _main (ROOT)
   ___fldiv
     ___flmul (ARG)
       __Umul8_16
     ___wmul (ARG)
     ___xxtofl (ARG)
       ___fltol (ARG)
         ___flmul (ARG)
       ___wmul (ARG)
     _round (ARG)
       ___fladd
       ___flmul (ARG)
       ___flsub (ARG)
         ___fladd
         _trunc (ARG)
           ___fltol
           ___xxtofl
           _frexp
             ___fleq
       _trunc (ARG)
   ___flge
   ___flmul
   ___fltol
   ___lwdiv
     ___lwmod (ARG)
   ___lwmod
   ___wmul
   ___xxtofl
   _round

 Address spaces:
Name               Size   Autos  Total    Cost      Usage
BITCOMMON            E      0       0       0        0.0%
EEDATA             100      0       0       0        0.0%
NULL                 0      0       0       0        0.0%
CODE                 0      0       0       0        0.0%
COMMON               E      E       E       1      100.0%
BITSFR0              0      0       0       1        0.0%
SFR0                 0      0       0       1        0.0%
BITSFR1              0      0       0       2        0.0%
SFR1                 0      0       0       2        0.0%
STACK                0      0       0       2        0.0%
ABS                  0      0      8B       3        0.0%
BITBANK0            50      0       0       4        0.0%
BITSFR3              0      0       0       4        0.0%
SFR3                 0      0       0       4        0.0%
BANK0               50     4E      50       5      100.0%
BITSFR2              0      0       0       5        0.0%
SFR2                 0      0       0       5        0.0%
BITBANK1            50      0       0       6        0.0%
BANK1               50     2D      2D       7       56.2%
BITBANK3            60      0       0       8        0.0%
BANK3               60      0       0       9        0.0%
BITBANK2            60      0       0      10        0.0%
BANK2               60      0       0      11        0.0%
DATA                 0      0      8B      12        0.0%


Microchip Technology PIC Macro Assembler V2.32 build 20210201212658 
Symbol Table                                                                                   Sun Jun 27 19:57:13 2021

           ___fldiv@aexp 00B4             ___fldiv@bexp 00B3                        pc 0002  
           ___fldiv@sign 00AC                       l42 0DB6                       _GO 00F9  
            main@Re_Vout 00C5                       fsr 0004      ___wmul@multiplicand 0072  
    __Umul8_16@word_mpld 0076                      l135 090F                      l312 0129  
                    l304 09E9                      l313 0142                      l137 0927  
                    l321 00A0                      l305 0A05                      l306 0A1A  
                    l331 00A0                      l500 0CD8                      l309 00BD  
                    l407 09CC                      l432 030B                      l328 008B  
                    l417 0988                      l441 0496                      l601 0A6E  
                    l506 0D68                      l530 0763                      l434 02E0  
                    l508 0D80                      l524 07F7                      l428 0262  
                    l453 0402                      l470 0488                      l462 0464  
                    l543 093C                      l471 0496                      l536 07EB  
                    l545 094E                      l449 03DC                      l474 0902  
                    l570 01FE                      l459 0424                      l484 0B9E  
                    l581 01C8                      l486 0D94                      l582 01D4  
                    l574 01AC                      l568 0167                      l594 0ACA  
                    l588 0B31                      fsr0 0004                      indf 0000  
           ___flmul@aexp 002D             ___flmul@bexp 002E             ___flmul@sign 0028  
           ___flmul@temp 0033             ___flmul@prod 002F             ___fltol@exp1 003F  
                   l2001 0CA0                     l2011 0CD3                     l2003 0CA8  
                   l2021 0CF6                     l2005 0CAC                     l2101 0586  
                   l2031 0D5B                     l2023 0D2B                     l2015 0CDF  
                   l2007 0CAD                     l2111 05F4                     l2103 05A2  
                   l2041 0D78                     l2033 0D5F                     l2017 0CE4  
                   l2025 0D31                     l2009 0CB1                     l2121 0684  
                   l2113 0604                     l2105 05BE                     l2201 0DA5  
                   l2035 0D67                     l2027 0D3E                     l2019 0CF2  
                   l2131 0718                     l2123 0694                     l2115 0621  
                   l2107 05C7                     l2051 04A4                     l2211 0DB3  
                   l2203 0DA9                     l2037 0D72                     l2029 0D4C  
                   l2141 073D                     l2133 0726                     l2125 06C1  
                   l2117 063A                     l2109 05D7                     l2061 04BB  
                   l2053 04A8                     l1501 005B                     l2221 0E9E  
                   l2213 0DBA                     l2205 0DAD                     l2039 0D76  
                   l2151 0760                     l2135 072F                     l2143 0743  
                   l2127 06E7                     l2119 0657                     l2071 04D4  
                   l2063 04BD                     l2055 04A9                     l2047 0497  
                   l1503 005F                     l1511 0079                     l2223 0EDE  
                   l2231 0F38                     l2215 0DC0                     l2207 0DB0  
                   l2161 077F                     l2145 0747                     l2137 0733  
                   l2129 070F                     l2081 04E9                     l2073 04D5  
                   l2065 04C5                     l2057 04AE                     l2049 049E  
                   l1601 02AC                     l1521 0095                     l2233 0F78  
                   l2241 0FD1                     l2225 0EF1                     l2217 0E20  
                   l2209 0DB0                     l2171 07C5                     l2163 0798  
                   l2155 0768                     l2147 0748                     l2139 0734  
                   l2091 0504                     l2083 04F1                     l2075 04DA  
                   l2067 04CA                     l2059 04B3                     l1611 02F1  
                   l1603 02AD                     l1531 0211                     l1523 01FF  
                   l2243 0FDE                     l2235 0F8B                     l2227 0F04  
                   l2219 0E85                     l2181 07E4                     l2173 07CF  
                   l2157 076D                     l2165 079E                     l2149 074C  
                   l2093 0514                     l2085 04F6                     l2077 04DF  
                   l2069 04D0                     l1701 046E                     l1621 030F  
                   l1613 02F5                     l1605 02C4                     l1533 0216  
                   l1541 0226                     l1525 0206                     l1517 0080  
                   l1509 0067                     l2245 0FED                     l2237 0FAB  
                   l2229 0F17                     l2183 07EF                     l2175 07D1  
                   l2167 07AB                     l2159 077B                     l2095 0521  
                   l2087 04FB                     l2079 04E7                     l1711 0482  
                   l1703 0476                     l1631 0338                     l1623 0314  
                   l1615 02F6                     l1607 02E4                     l1551 0240  
                   l1543 022E                     l1535 021B                     l1527 020C  
                   l1519 0090                     l2239 0FBE                     l2191 0D9A  
                   l2177 07DF                     l2169 07B6                     l2097 053E  
                   l1713 0491                     l1705 047B                     l1641 034E  
                   l1633 033C                     l1617 0301                     l1609 02EF  
                   l1561 0257                     l1553 0244                     l1545 0233  
                   l1537 0223                     l1529 0210                     l1721 014F  
                   l1481 0A17                     l1801 0A88                     l2193 0D9D  
                   l2179 07E3                     l2099 055A                     l1715 0495  
                   l1707 047C                     l1651 03BA                     l1643 0359  
                   l1635 0347                     l1627 031D                     l1619 0305  
                   l1571 0270                     l1563 0258                     l1555 0245  
                   l1547 0239                     l1539 0224                     l1731 017D  
                   l1723 015F                     l1483 0A19                     l1475 09CD  
                   l1811 0AC2                     l2195 0DA0                     l2187 0D95  
                   l1901 0984                     l1709 0480                     l1653 03BF  
                   l1637 0349                     l1629 0334                     l1645 035E  
                   l1581 0284                     l1573 0274                     l1557 024A  
                   l1565 025A                     l1549 023A                     l1493 003B  
                   l1741 01B3                     l1733 018A                     l1725 016F  
                   l1717 0146                     l1477 09E1                     l1805 0A91  
                   l2197 0DA3                     l2189 0D99                     l1911 0B4B  
                   l1831 091D                     l1823 0903                     l1671 0409  
                   l1663 03F2                     l1647 0374                     l1655 03CE  
                   l1639 034D                     l1591 0298                     l1583 0288  
                   l1575 0278                     l1567 0268                     l1559 024F  
                   l1495 0050                     l1487 0025                     l1751 01EC  
                   l1743 01BE                     l1735 0191                     l1719 014B  
                   l1479 09FD                     l1807 0A9A                     l1815 0ACB  
                   l2199 0DA4                     l1921 0B5F                     l1913 0B4C  
                   l1905 0B32                     l1841 00D1                     l1833 0923  
                   l1825 0905                     l1681 0417                     l1673 040B  
                   l1665 03FD                     l1657 03E4                     l1649 03B4  
                   l1593 029C                     l1585 028C                     l1577 027C  
                   l1569 026C                     l1497 0051                     l1489 0032  
                   l1753 01F1                     l1745 01C2                     l1737 0195  
                   l1729 0178                     l1761 0A1B                     l1809 0A9B  
                   l1817 0AFB                     l1931 0B80                     l1915 0B51  
                   l1923 0B61                     l1907 0B3D                     l1851 013F  
                   l1843 00D9                     l1827 0909                     l1691 042E  
                   l1683 041B                     l1675 0410                     l1667 0401  
                   l1659 03E9                     l1595 02A0                     l1587 0290  
                   l1579 0280                     l1499 0059                     l1755 01F5  
                   l1747 01CC                     l1739 01A3                     l1771 0A69  
                   l1763 0A36                     l1819 0B1A                     l1941 0B94  
                   l1933 0B81                     l1925 0B69                     l1917 0B56  
                   l1909 0B47                     l1853 0141                     l1845 00DD  
                   l1837 00A1                     l1861 0991                     l1829 0916  
                   l1693 043C                     l1685 0421                     l1669 0406  
                   l1677 0412                     l1597 02A4                     l1589 0294  
                   l1757 01F6                     l1749 01D6                     l1773 0A6D  
                   l1935 0B86                     l1943 0B96                     l1927 0B72  
                   l1919 0B5E                     l1847 0101                     l1839 00B5  
                   l1791 0945                     l1783 0929                     l1871 09B4  
                   l1863 0994                     l1695 0440                     l1679 0416  
                   l1599 02A8                     l1767 0A3F                     l1961 0BEF  
                   l1945 0BA6                     l1953 0BC3                     l1937 0B8B  
                   l1929 0B7C                     l1849 0105                     l1793 094A  
                   l1785 092B                     l1873 09BA                     l1865 099B  
                   l1857 0989                     l1697 0460                     l1689 0429  
                   l1777 08DF                     l1769 0A5C                     l1971 0C0E  
                   l1963 0BF7                     l1955 0BC8                     l1947 0BB2  
                   l1939 0B93                     l1787 0932                     l1875 09BB  
                   l1867 099F                     l1859 098B                     l1891 0963  
                   l1883 094F                     l1699 0469                     l1779 08E3  
                   l1981 0C54                     l1973 0C2A                     l1965 0BFF  
                   l1949 0BBA                     l1789 0936                     l1877 09C2  
                   l1869 09A3                     l1893 0967                     l1885 0955  
                   l1797 0A6F                     l1991 0C79                     l1983 0C55  
                   l1975 0C30                     l1967 0C07                     l1959 0BD1  
                   l1879 09C8                     l1895 0971                     l1887 0958  
                   l1799 0A82                     l1993 0C7B                     l1985 0C63  
                   l1977 0C31                     l1969 0C09                     l1897 0977  
                   l1889 095F                     l1995 0C8A                     l1979 0C40  
                   l1987 0C6B                     l1899 097E                     l1997 0C90  
                   l1989 0C71                     l1999 0C91                     _ADFM 04FF  
                   u2000 030B                     u2001 030A                     u2010 030F  
                   u2011 030E                     u2100 03A1                     u2020 0314  
                   u2101 03A2                     u2021 0313                     u2110 03BF  
                   u2102 03A7                     u2111 03BE                     u2103 03A8  
                   u2031 0326                     u3000 0D13                     u2200 0421  
                   u2120 03E4                     u2040 0338                     u2032 032D  
                   u2201 0420                     u2121 03E3                     u2041 0337  
                   u2033 0334                     u3010 0D3E                     u2210 0428  
                   u2130 03E9                     u2050 033C                     u3011 0D3D  
                   u2211 0427                     u2131 03E8                     u2051 033B  
                   u3020 0D5B                     u3100 04F6                     u2300 0495  
                   u2220 042E                     u2060 034D                     u3021 0D5A  
                   u3005 0D0E                     u3101 04F5                     u2301 0494  
                   u2221 042D                     u2061 034C                     u3030 0D76  
                   u3110 04FB                     u2230 0440                     u2150 0401  
                   u2310 014B                     u3031 0D75                     u3015 0D3A  
                   u3111 04FA                     u2231 043F                     u2151 0400  
                   u2311 014A                     u3040 04A8                     u2240 0451  
                   u2160 0406                     u2080 0374                     u2400 01C8  
                   u2320 014F                     u3025 0D57                     u3201 0649  
                   u3121 054C                     u3041 04A7                     u2161 0405  
                   u2145 03F6                     u2081 0373                     u2401 01C7  
                   u2321 014E                     u3202 0650                     u3122 0553  
                   u3050 04AE                     u2250 0460                     u2170 0410  
                   u2410 01CC                     u2330 016F                     u3211 0676  
                   u3203 0657                     u3131 0568                     u3123 055A  
                   u3051 04AD                     u2251 045F                     u2171 040F  
                   u2091 038D                     u2083 0370                     u2075 0352  
                   u2411 01CB                     u2331 016E                     u3212 067D  
                   u3132 056F                     u3060 04B3                     u2260 0469  
                   u2180 0416                     u2092 038E                     u2420 01E1  
                   u2500 0A9A                     u3221 06A3                     u3213 0684  
                   u3141 0594                     u3133 0576                     u3061 04B2  
                   u2261 0468                     u2245 044C                     u2181 0415  
                   u2093 0393                     u2501 0A99                     u3310 0747  
                   u3230 06CD                     u3222 06AA                     u3142 059B  
                   u3070 04D4                     u2510 0909                     u2270 046E  
                   u2190 041B                     u2094 0394                     u2430 01F1  
                   u2350 0190                     u3311 0746                     u3223 06B1  
                   u3151 05B0                     u3143 05A2                     u3071 04D3  
                   u2511 0908                     u2271 046D                     u2191 041A  
                   u2095 0399                     u2431 01F0                     u2351 018F  
                   u3400 07E3                     u3320 074C                     u3152 05B7  
                   u3080 04DA                     u2280 047B                     u2096 039A  
                   u1800 0078                     u2440 01F5                     u1720 09E1  
                   u2601 0114                     u3401 07E2                     u3321 074B  
                   u3305 0736                     u3241 06D9                     u3153 05BE  
                   u3081 04D9                     u2281 047A                     u1801 0077  
                   u2441 01F4                     u2425 01DC                     u2345 0182  
                   u1721 09E0                     u2610 013F                     u2602 0115  
                   u3330 0760                     u3250 06F5                     u3242 06E0  
                   u3090 04DF                     u2290 0480                     u1810 007F  
                   u2370 01B2                     u1730 09FD                     u2450 0A36  
                   u3410 0DBA                     u2611 013E                     u2603 011A  
                   u3331 075F                     u3243 06E7                     u3235 06C8  
                   u3171 05E6                     u3091 04DE                     u2291 047F  
                   u1811 007E                     u2371 01B1                     u1731 09FC  
                   u2451 0A35                     u3411 0DB9                     u2604 011B  
                   u2460 0936                     u3340 0767                     u3172 05ED  
                   u2620 0991                     u2540 0923                     u1900 024A  
                   u1740 0A17                     u3420 0E9E                     u2605 0120  
                   u2461 0935                     u3341 0766                     u3261 0701  
                   u3181 0613                     u3173 05F4                     u3165 05C0  
                   u2621 0990                     u2541 0922                     u2525 0910  
                   u1901 0249                     u2365 01A4                     u1741 0A16  
                   u3421 0E9D                     u2606 0121                     u2550 00B5  
                   u3350 076D                     u3262 0708                     u3182 061A  
                   u2710 0967                     u1910 024F                     u1830 0090  
                   u1750 0032                     u2390 01C2                     u2615 013B  
                   u2551 00B4                     u3351 076C                     u3263 070F  
                   u3255 06F0                     u3183 0621                     u2711 0966  
                   u2535 0917                     u1911 024E                     u1831 008F  
                   u1751 0031                     u2391 01C1                     u2800 0B8B  
                   u2560 00D1                     u2480 094A                     u3360 077F  
                   u2640 09A3                     u2720 0971                     u1920 0268  
                   u1840 0095                     u1760 0049                     u2801 0B8A  
                   u2561 00D0                     u2481 0949                     u3361 077E  
                   u2641 09A2                     u2721 0970                     u2705 0959  
                   u1921 0267                     u1841 0094                     u1825 0082  
                   u2385 01B7                     u1745 0A13                     u2810 0BA6  
                   u2570 00DD                     u3370 078E                     u3290 0733  
                   u1930 026C                     u1850 0210                     u1770 005F  
                   u2490 0A88                     u2811 0BA5                     u2571 00DC  
                   u2475 093D                     u3291 0732                     u3275 0711  
                   u3195 0623                     u2635 0995                     u1931 026B  
                   u1851 020F                     u1771 005E                     u2491 0A87  
                   u2900 0C79                     u2820 0BC8                     u3380 07AB  
                   u2660 09B4                     u2740 0984                     u1940 02C4  
                   u1860 0216                     u1780 0066                     u2901 0C78  
                   u2821 0BC7                     u2581 00EC                     u3381 07AA  
                   u3285 0728                     u2661 09B3                     u2741 0983  
                   u2725 096D                     u1941 02C3                     u1861 0215  
                   u1781 0065                     u1765 0044                     u2830 0C0E  
                   u2750 0B4B                     u2590 0105                     u2582 00ED  
                   u3390 07C5                     u1950 02CD                     u1870 021B  
                   u2831 0C0D                     u2751 0B4A                     u2591 0104  
                   u2583 00F2                     u3391 07C4                     u3375 0789  
                   u2655 09A4                     u2735 0978                     u1951 02CB  
                   u1871 021A                     u2920 0C90                     u2760 0B51  
                   u2584 00F3                     u2680 09C8                     u1960 02CE  
                   u1880 0239                     u2921 0C8F                     u2761 0B50  
                   u2585 00F8                     u3385 07A7                     u2681 09C7  
                   u2665 09B0                     u1945 02C0                     u1881 0238  
                   u2770 0B56                     u2586 00F9                     u2690 0955  
                   u1970 02E4                     u1890 0244                     u2915 0C7F  
                   u2771 0B55                     u3395 07C1                     u2675 09BC  
                   u2691 0954                     u1971 02E3                     u1891 0243  
                   u1795 0068                     u2940 0CAC                     u2860 0C30  
                   u2780 0B80                     u1980 02F5                     u2941 0CAB  
                   u2861 0C2F                     u2845 0C12                     u2781 0B7F  
                   u1981 02F4                     u2950 0CB1                     u2790 0B86  
                   u2951 0CB0                     u2935 0C95                     u2855 0C1F  
                   u2791 0B85                     u2960 0CD3                     u2880 0C54  
                   u2961 0CD2                     u2881 0C53                     u2970 0CDE  
                   u2890 0C71                     u2971 0CDD                     u2891 0C70  
                   u2875 0C35                     u1995 02FA                     u2980 0CE4  
                   u2981 0CE3                     u2885 0C50                     u2990 0CF6  
                   u2991 0CF5                     _main 0D95                     btemp 007E  
                   start 0000          ___fldiv@new_exp 00AD              main@storage 00B9  
          ___fltol@sign1 003E          __end_of___fladd 0497                    ?_main 0070  
        __end_of___fldiv 0D95          __end_of___flmul 07F8          __end_of___flsub 0903  
        __end_of___fltol 00A1                    _ANSEL 0188          __end_of___lwdiv 09CD  
        __end_of___lwmod 0989                    _PORTB 0006                    _PORTC 0007  
                  _PORTD 0008                    _TRISB 0086                    _TRISC 0087  
                  _TRISD 0088                    _frexp 0A1B                    _errno 006E  
                  _round 0ACB                    _trunc 0A6F                    pclath 000A  
                  status 0003          __end_ofmain@led 001D                    wtemp0 007E  
        __initialization 07F8             __end_of_main 1000                   ??_main 00B5  
                 _ADCON0 001F                   _ADCON1 009F                   ?_frexp 0020  
                 _ADRESH 001E                   _ADRESL 009E                   ?_round 0061  
                 _ANSELH 0189                   ?_trunc 004E                   _TRISA0 0428  
       __end_of___xxtofl 01FF                   ___flge 00A1                   ___fleq 09CD  
              ??___fladd 0020                   ___wmul 0903                ??___fldiv 0069  
              ??___flmul 0079                ??___flsub 007E                ??___fltol 0039  
              ??___lwdiv 007A                ??___lwmod 0074                   main@CH 00BD  
                 main@DV 00BF                   main@TR 00BB       __size_of__Umul8_16 0027  
                 round@f 0065                   round@x 0061                   trunc@i 0053  
                 trunc@x 004E               ___flge@ff1 0070               ___flge@ff2 0074  
           ___xxtofl@arg 004A             ___xxtofl@exp 0049             ___xxtofl@val 0040  
             ___fleq@ff1 0070               ___fleq@ff2 0074  __end_of__initialization 07FC  
             ___fltol@f1 0035           __pcstackCOMMON 0070            __end_of_frexp 0A6F  
          __end_of_round 0B32            __end_of_trunc 0ACB                  ??_frexp 007C  
                ??_round 007E                  ??_trunc 0052               __pbssBANK0 006E  
      __end_of__Umul8_16 094F               __pmaintext 0D95                  ?___flge 0070  
                ?___fleq 0070                  ?___wmul 0070                ?___xxtofl 0040  
             __stringtab 0003          __size_of___flge 00A2          __size_of___fleq 004E  
                ___fladd 01FF                  ___fldiv 0B32                  ___flmul 0497  
                ___flsub 08DF                  ___fltol 0025          __size_of___wmul 0025  
                ___lwdiv 0989                  ___lwmod 094F                  __ptext1 0ACB  
                __ptext2 0A6F                  __ptext3 0A1B                  __ptext4 09CD  
                __ptext5 0143                  __ptext6 0025                  __ptext7 08DF  
                __ptext8 01FF                  __ptext9 0903               ??___xxtofl 0044  
                main@led 0009     end_of_initialization 07FC              ___fladd@grs 007B  
          ___xxtofl@sign 0048              ___fldiv@grs 00AF              ___fldiv@rem 00A8  
            ___flmul@grs 0029           __end_of___flge 0143           __end_of___fleq 0A1B  
         __end_of___wmul 0928      start_initialization 07F8               frexp@value 0020  
               ??___flge 0078                 ??___fleq 0078                 ??___wmul 0074  
              __Umul8_16 0928                ___fladd@a 0074                ___fladd@b 0070  
              ___fldiv@a 00A0                ___fldiv@b 00A4                ___flmul@a 0024  
              ___flmul@b 0020                ___flsub@a 0059                ___flsub@b 005D  
              ___latbits 0002            __pcstackBANK0 0020            __pcstackBANK1 00A0  
      __size_of___xxtofl 00BC         ___lwdiv@dividend 0078                 ?___fladd 0070  
               ?___fldiv 00A0                 ?___flmul 0020                 ?___flsub 0059  
               ?___fltol 0035               ?__Umul8_16 0070                 ?___lwdiv 0076  
               ?___lwmod 0070                __pstrings 0003         ___lwdiv@quotient 007B  
         __size_of_frexp 0054           __size_of_round 0067           __size_of_trunc 005C  
         ___wmul@product 0074              __stringbase 0008        ___wmul@multiplier 0070  
              frexp@eptr 0024              ??__Umul8_16 0072         __size_of___fladd 0298  
       __size_of___fldiv 0263         __size_of___flmul 0361         __size_of___flsub 0024  
       __size_of___fltol 007C         __size_of___lwdiv 0044         __size_of___lwmod 003A  
     __end_of__stringtab 0009                 ___xxtofl 0143                 _main$709 00C9  
        ___lwdiv@divisor 0076          ___lwdiv@counter 007D                 __ptext10 094F  
               __ptext11 0989                 __ptext12 0497                 __ptext13 0928  
               __ptext14 00A1                 __ptext15 0B32               trunc@expon 0057  
          __size_of_main 026B                 main@Vout 00C1                 main@temp 00CB  
       ___lwmod@dividend 0072                stringcode 0003   __Umul8_16@multiplicand 0070  
        ___lwmod@divisor 0070          ___lwmod@counter 0075                 stringdir 0003  
               stringtab 0003            ___fladd@signs 0078             ___fladd@aexp 0079  
           ___fladd@bexp 007A     __Umul8_16@multiplier 0078        __Umul8_16@product 0074  
