

Microchip MPLAB XC8 Assembler V2.32 build 20210201212658 
                                                                                               Sun Jun 27 18:16:07 2021

Microchip MPLAB XC8 C Compiler v2.32 (Free license) build 20210201212658 Og1 
     1                           	processor	16F887
     2                           	pagewidth 120
     3                           	opt	flic
     4                           	psect	strings,global,class=STRING,delta=2,noexec
     5                           	psect	cinit,global,class=CODE,merge=1,delta=2
     6                           	psect	cstackCOMMON,global,class=COMMON,space=1,delta=1,noexec
     7                           	psect	cstackBANK0,global,class=BANK0,space=1,delta=1,noexec
     8                           	psect	maintext,global,class=CODE,split=1,delta=2
     9                           	psect	text1,local,class=CODE,merge=1,delta=2,group=1
    10                           	psect	text2,local,class=CODE,merge=1,delta=2,group=1
    11                           	psect	text3,local,class=CODE,merge=1,delta=2,group=1
    12                           	psect	text4,local,class=CODE,merge=1,delta=2,group=1
    13                           	psect	text5,local,class=CODE,merge=1,delta=2,group=1
    14                           	psect	text6,local,class=CODE,merge=1,delta=2,group=1
    15                           	psect	text7,local,class=CODE,merge=1,delta=2,group=1
    16                           	psect	text8,local,class=CODE,merge=1,delta=2,group=1
    17                           	psect	text9,local,class=CODE,merge=1,delta=2,group=1
    18                           	psect	config,global,abs,ovrld,class=CONFIG,space=4,delta=2,noexec
    19                           	dabs	1,0x7E,2
    20  0000                     
    21                           ; Version 2.20
    22                           ; Generated 12/02/2020 GMT
    23                           ; 
    24                           ; Copyright © 2020, Microchip Technology Inc. and its subsidiaries ("Microchip")
    25                           ; All rights reserved.
    26                           ; 
    27                           ; This software is developed by Microchip Technology Inc. and its subsidiaries ("Microch
      +                          ip").
    28                           ; 
    29                           ; Redistribution and use in source and binary forms, with or without modification, are
    30                           ; permitted provided that the following conditions are met:
    31                           ; 
    32                           ;     1. Redistributions of source code must retain the above copyright notice, this lis
      +                          t of
    33                           ;        conditions and the following disclaimer.
    34                           ; 
    35                           ;     2. Redistributions in binary form must reproduce the above copyright notice, this 
      +                          list
    36                           ;        of conditions and the following disclaimer in the documentation and/or other
    37                           ;        materials provided with the distribution.
    38                           ; 
    39                           ;     3. Microchip's name may not be used to endorse or promote products derived from th
      +                          is
    40                           ;        software without specific prior written permission.
    41                           ; 
    42                           ; THIS SOFTWARE IS PROVIDED BY MICROCHIP "AS IS" AND ANY EXPRESS OR IMPLIED WARRANTIES,
    43                           ; INCLUDING, BUT NOT LIMITED TO, THE IMPLIED WARRANTIES OF MERCHANTABILITY AND FITNESS F
      +                          OR
    44                           ; PURPOSE ARE DISCLAIMED.  IN NO EVENT SHALL MICROCHIP BE LIABLE FOR ANY DIRECT, INDIREC
      +                          T,
    45                           ; INCIDENTAL, SPECIAL, EXEMPLARY, OR CONSEQUENTIAL DAMAGES (INCLUDING BUT NOT LIMITED TO
    46                           ; PROCUREMENT OF SUBSTITUTE GOODS OR SERVICES; LOSS OF USE, DATA OR PROFITS; OR BUSINESS
    47                           ; INTERRUPTION) HOWSOEVER CAUSED AND ON ANY THEORY OF LIABILITY, WHETHER IN CONTRACT, ST
      +                          RICT
    48                           ; LIABILITY, OR TORT (INCLUDING NEGLIGENCE OR OTHERWISE) ARISING IN ANY WAY OUT OF THE U
      +                          SE OF
    49                           ; THIS SOFTWARE, EVEN IF ADVISED OF THE POSSIBILITY OF SUCH DAMAGE.
    50                           ; 
    51                           ; 
    52                           ; Code-generator required, PIC16F887 Definitions
    53                           ; 
    54                           ; SFR Addresses
    55  0000                     	;# 
    56  0001                     	;# 
    57  0002                     	;# 
    58  0003                     	;# 
    59  0004                     	;# 
    60  0005                     	;# 
    61  0006                     	;# 
    62  0007                     	;# 
    63  0008                     	;# 
    64  0009                     	;# 
    65  000A                     	;# 
    66  000B                     	;# 
    67  000C                     	;# 
    68  000D                     	;# 
    69  000E                     	;# 
    70  000E                     	;# 
    71  000F                     	;# 
    72  0010                     	;# 
    73  0011                     	;# 
    74  0012                     	;# 
    75  0013                     	;# 
    76  0014                     	;# 
    77  0015                     	;# 
    78  0015                     	;# 
    79  0016                     	;# 
    80  0017                     	;# 
    81  0018                     	;# 
    82  0019                     	;# 
    83  001A                     	;# 
    84  001B                     	;# 
    85  001B                     	;# 
    86  001C                     	;# 
    87  001D                     	;# 
    88  001E                     	;# 
    89  001F                     	;# 
    90  0081                     	;# 
    91  0085                     	;# 
    92  0086                     	;# 
    93  0087                     	;# 
    94  0088                     	;# 
    95  0089                     	;# 
    96  008C                     	;# 
    97  008D                     	;# 
    98  008E                     	;# 
    99  008F                     	;# 
   100  0090                     	;# 
   101  0091                     	;# 
   102  0092                     	;# 
   103  0093                     	;# 
   104  0093                     	;# 
   105  0093                     	;# 
   106  0094                     	;# 
   107  0095                     	;# 
   108  0096                     	;# 
   109  0097                     	;# 
   110  0098                     	;# 
   111  0099                     	;# 
   112  009A                     	;# 
   113  009B                     	;# 
   114  009C                     	;# 
   115  009D                     	;# 
   116  009E                     	;# 
   117  009F                     	;# 
   118  0105                     	;# 
   119  0107                     	;# 
   120  0108                     	;# 
   121  0109                     	;# 
   122  010C                     	;# 
   123  010C                     	;# 
   124  010D                     	;# 
   125  010E                     	;# 
   126  010F                     	;# 
   127  0185                     	;# 
   128  0187                     	;# 
   129  0188                     	;# 
   130  0189                     	;# 
   131  018C                     	;# 
   132  018D                     	;# 
   133  0000                     	;# 
   134  0001                     	;# 
   135  0002                     	;# 
   136  0003                     	;# 
   137  0004                     	;# 
   138  0005                     	;# 
   139  0006                     	;# 
   140  0007                     	;# 
   141  0008                     	;# 
   142  0009                     	;# 
   143  000A                     	;# 
   144  000B                     	;# 
   145  000C                     	;# 
   146  000D                     	;# 
   147  000E                     	;# 
   148  000E                     	;# 
   149  000F                     	;# 
   150  0010                     	;# 
   151  0011                     	;# 
   152  0012                     	;# 
   153  0013                     	;# 
   154  0014                     	;# 
   155  0015                     	;# 
   156  0015                     	;# 
   157  0016                     	;# 
   158  0017                     	;# 
   159  0018                     	;# 
   160  0019                     	;# 
   161  001A                     	;# 
   162  001B                     	;# 
   163  001B                     	;# 
   164  001C                     	;# 
   165  001D                     	;# 
   166  001E                     	;# 
   167  001F                     	;# 
   168  0081                     	;# 
   169  0085                     	;# 
   170  0086                     	;# 
   171  0087                     	;# 
   172  0088                     	;# 
   173  0089                     	;# 
   174  008C                     	;# 
   175  008D                     	;# 
   176  008E                     	;# 
   177  008F                     	;# 
   178  0090                     	;# 
   179  0091                     	;# 
   180  0092                     	;# 
   181  0093                     	;# 
   182  0093                     	;# 
   183  0093                     	;# 
   184  0094                     	;# 
   185  0095                     	;# 
   186  0096                     	;# 
   187  0097                     	;# 
   188  0098                     	;# 
   189  0099                     	;# 
   190  009A                     	;# 
   191  009B                     	;# 
   192  009C                     	;# 
   193  009D                     	;# 
   194  009E                     	;# 
   195  009F                     	;# 
   196  0105                     	;# 
   197  0107                     	;# 
   198  0108                     	;# 
   199  0109                     	;# 
   200  010C                     	;# 
   201  010C                     	;# 
   202  010D                     	;# 
   203  010E                     	;# 
   204  010F                     	;# 
   205  0185                     	;# 
   206  0187                     	;# 
   207  0188                     	;# 
   208  0189                     	;# 
   209  018C                     	;# 
   210  018D                     	;# 
   211                           
   212                           	psect	strings
   213  0800                     __pstrings:
   214  0800                     stringtab:
   215  0800                     __stringtab:
   216  0800                     stringcode:	
   217                           ;	String table - string pointers are 1 byte each
   218                           
   219  0800                     stringdir:
   220  0800  3008               	movlw	high stringdir
   221  0801  008A               	movwf	10
   222  0802  0804               	movf	4,w
   223  0803  0A84               	incf	4,f
   224  0804  0782               	addwf	2,f
   225  0805                     __stringbase:
   226  0805  3400               	retlw	0
   227  0806                     __end_of__stringtab:
   228  0806                     main@led:
   229  0806  34C0               	retlw	192
   230  0807  3400               	retlw	0
   231  0808  34F9               	retlw	249
   232  0809  3400               	retlw	0
   233  080A  34A4               	retlw	164
   234  080B  3400               	retlw	0
   235  080C  34B0               	retlw	176
   236  080D  3400               	retlw	0
   237  080E  3499               	retlw	153
   238  080F  3400               	retlw	0
   239  0810  3492               	retlw	146
   240  0811  3400               	retlw	0
   241  0812  3482               	retlw	130
   242  0813  3400               	retlw	0
   243  0814  34F8               	retlw	248
   244  0815  3400               	retlw	0
   245  0816  3480               	retlw	128
   246  0817  3400               	retlw	0
   247  0818  3490               	retlw	144
   248  0819  3400               	retlw	0
   249  081A                     __end_ofmain@led:
   250  001F                     _ADCON0	set	31
   251  0008                     _PORTD	set	8
   252  0007                     _PORTC	set	7
   253  0006                     _PORTB	set	6
   254  00F9                     _GO	set	249
   255  009F                     _ADCON1	set	159
   256  0088                     _TRISD	set	136
   257  0087                     _TRISC	set	135
   258  0086                     _TRISB	set	134
   259  0428                     _TRISA0	set	1064
   260  0189                     _ANSELH	set	393
   261  0188                     _ANSEL	set	392
   262                           
   263                           	psect	cinit
   264  07FC                     start_initialization:	
   265                           ; #config settings
   266                           
   267  07FC                     __initialization:
   268  07FC                     end_of_initialization:	
   269                           ;End of C runtime variable initialization code
   270                           
   271  07FC                     __end_of__initialization:
   272  07FC  0183               	clrf	3
   273  07FD  120A  118A  290F   	ljmp	_main	;jump to C main() function
   274                           
   275                           	psect	cstackCOMMON
   276  0070                     __pcstackCOMMON:
   277  0070                     ?___flge:
   278  0070                     ?_main:	
   279                           ; 1 bit 
   280                           
   281  0070                     ?__Umul8_16:	
   282                           ; 1 bytes @ 0x0
   283                           
   284  0070                     ?___wmul:	
   285                           ; 2 bytes @ 0x0
   286                           
   287  0070                     ?___lwmod:	
   288                           ; 2 bytes @ 0x0
   289                           
   290  0070                     __Umul8_16@multiplicand:	
   291                           ; 2 bytes @ 0x0
   292                           
   293  0070                     ___wmul@multiplier:	
   294                           ; 1 bytes @ 0x0
   295                           
   296  0070                     ___lwmod@divisor:	
   297                           ; 2 bytes @ 0x0
   298                           
   299  0070                     ___flge@ff1:	
   300                           ; 2 bytes @ 0x0
   301                           
   302                           
   303                           ; 4 bytes @ 0x0
   304  0070                     	ds	2
   305  0072                     ??__Umul8_16:
   306  0072                     ___wmul@multiplicand:	
   307                           ; 1 bytes @ 0x2
   308                           
   309  0072                     ___lwmod@dividend:	
   310                           ; 2 bytes @ 0x2
   311                           
   312                           
   313                           ; 2 bytes @ 0x2
   314  0072                     	ds	2
   315  0074                     ??___wmul:
   316  0074                     ??___lwmod:	
   317                           ; 1 bytes @ 0x4
   318                           
   319  0074                     ___wmul@product:	
   320                           ; 1 bytes @ 0x4
   321                           
   322  0074                     __Umul8_16@product:	
   323                           ; 2 bytes @ 0x4
   324                           
   325  0074                     ___flge@ff2:	
   326                           ; 2 bytes @ 0x4
   327                           
   328                           
   329                           ; 4 bytes @ 0x4
   330  0074                     	ds	1
   331  0075                     ___lwmod@counter:
   332                           
   333                           ; 1 bytes @ 0x5
   334  0075                     	ds	1
   335  0076                     ?___lwdiv:
   336  0076                     ?___xxtofl:	
   337                           ; 2 bytes @ 0x6
   338                           
   339  0076                     ___lwdiv@divisor:	
   340                           ; 4 bytes @ 0x6
   341                           
   342  0076                     __Umul8_16@word_mpld:	
   343                           ; 2 bytes @ 0x6
   344                           
   345  0076                     ___xxtofl@val:	
   346                           ; 2 bytes @ 0x6
   347                           
   348                           
   349                           ; 4 bytes @ 0x6
   350  0076                     	ds	2
   351  0078                     ??___flge:
   352  0078                     __Umul8_16@multiplier:	
   353                           ; 1 bytes @ 0x8
   354                           
   355  0078                     ___lwdiv@dividend:	
   356                           ; 1 bytes @ 0x8
   357                           
   358                           
   359                           ; 2 bytes @ 0x8
   360  0078                     	ds	1
   361  0079                     ??___flmul:
   362                           
   363                           ; 1 bytes @ 0x9
   364  0079                     	ds	1
   365  007A                     ??___lwdiv:
   366  007A                     ??___xxtofl:	
   367                           ; 1 bytes @ 0xA
   368                           
   369                           
   370                           ; 1 bytes @ 0xA
   371  007A                     	ds	1
   372  007B                     ___lwdiv@quotient:
   373                           
   374                           ; 2 bytes @ 0xB
   375  007B                     	ds	2
   376  007D                     ___lwdiv@counter:
   377                           
   378                           ; 1 bytes @ 0xD
   379  007D                     	ds	1
   380                           
   381                           	psect	cstackBANK0
   382  0020                     __pcstackBANK0:
   383  0020                     ?___flmul:
   384  0020                     ___xxtofl@sign:	
   385                           ; 4 bytes @ 0x0
   386                           
   387  0020                     ___flmul@b:	
   388                           ; 1 bytes @ 0x0
   389                           
   390                           
   391                           ; 4 bytes @ 0x0
   392  0020                     	ds	1
   393  0021                     ___xxtofl@exp:
   394                           
   395                           ; 1 bytes @ 0x1
   396  0021                     	ds	1
   397  0022                     ___xxtofl@arg:
   398                           
   399                           ; 4 bytes @ 0x2
   400  0022                     	ds	2
   401  0024                     ___flmul@a:
   402                           
   403                           ; 4 bytes @ 0x4
   404  0024                     	ds	2
   405  0026                     ?___fldiv:
   406  0026                     ___fldiv@a:	
   407                           ; 4 bytes @ 0x6
   408                           
   409                           
   410                           ; 4 bytes @ 0x6
   411  0026                     	ds	2
   412  0028                     ___flmul@sign:
   413                           
   414                           ; 1 bytes @ 0x8
   415  0028                     	ds	1
   416  0029                     ___flmul@grs:
   417                           
   418                           ; 4 bytes @ 0x9
   419  0029                     	ds	1
   420  002A                     ___fldiv@b:
   421                           
   422                           ; 4 bytes @ 0xA
   423  002A                     	ds	3
   424  002D                     ___flmul@aexp:
   425                           
   426                           ; 1 bytes @ 0xD
   427  002D                     	ds	1
   428  002E                     ??___fldiv:
   429  002E                     ___flmul@bexp:	
   430                           ; 1 bytes @ 0xE
   431                           
   432                           
   433                           ; 1 bytes @ 0xE
   434  002E                     	ds	1
   435  002F                     ___flmul@prod:
   436                           
   437                           ; 4 bytes @ 0xF
   438  002F                     	ds	4
   439  0033                     ___flmul@temp:
   440  0033                     ___fldiv@rem:	
   441                           ; 2 bytes @ 0x13
   442                           
   443                           
   444                           ; 4 bytes @ 0x13
   445  0033                     	ds	2
   446  0035                     ?___fltol:
   447  0035                     ___fltol@f1:	
   448                           ; 4 bytes @ 0x15
   449                           
   450                           
   451                           ; 4 bytes @ 0x15
   452  0035                     	ds	2
   453  0037                     ___fldiv@sign:
   454                           
   455                           ; 1 bytes @ 0x17
   456  0037                     	ds	1
   457  0038                     ___fldiv@new_exp:
   458                           
   459                           ; 2 bytes @ 0x18
   460  0038                     	ds	1
   461  0039                     ??___fltol:
   462                           
   463                           ; 1 bytes @ 0x19
   464  0039                     	ds	1
   465  003A                     ___fldiv@grs:
   466                           
   467                           ; 4 bytes @ 0x1A
   468  003A                     	ds	4
   469  003E                     ___fltol@sign1:
   470  003E                     ___fldiv@bexp:	
   471                           ; 1 bytes @ 0x1E
   472                           
   473                           
   474                           ; 1 bytes @ 0x1E
   475  003E                     	ds	1
   476  003F                     ___fltol@exp1:
   477  003F                     ___fldiv@aexp:	
   478                           ; 1 bytes @ 0x1F
   479                           
   480                           
   481                           ; 1 bytes @ 0x1F
   482  003F                     	ds	1
   483  0040                     ??_main:
   484                           
   485                           ; 1 bytes @ 0x20
   486  0040                     	ds	4
   487  0044                     main@TR:
   488                           
   489                           ; 2 bytes @ 0x24
   490  0044                     	ds	2
   491  0046                     main@CH:
   492                           
   493                           ; 2 bytes @ 0x26
   494  0046                     	ds	2
   495  0048                     main@DV:
   496                           
   497                           ; 2 bytes @ 0x28
   498  0048                     	ds	2
   499  004A                     _main$653:
   500                           
   501                           ; 2 bytes @ 0x2A
   502  004A                     	ds	2
   503  004C                     main@Vout:
   504                           
   505                           ; 4 bytes @ 0x2C
   506  004C                     	ds	4
   507  0050                     main@temp:
   508                           
   509                           ; 2 bytes @ 0x30
   510  0050                     	ds	2
   511                           
   512                           	psect	maintext
   513  010F                     __pmaintext:	
   514 ;;
   515 ;;Main: autosize = 0, tempsize = 4, incstack = 0, save=0
   516 ;;
   517 ;; *************** function _main *****************
   518 ;; Defined at:
   519 ;;		line 19 in file "BAI_5_ANH.c"
   520 ;; Parameters:    Size  Location     Type
   521 ;;		None
   522 ;; Auto vars:     Size  Location     Type
   523 ;;  Vout            4   44[BANK0 ] float 
   524 ;;  Re_Vout         4    0        float 
   525 ;;  temp            2   48[BANK0 ] unsigned int 
   526 ;;  DV              2   40[BANK0 ] unsigned int 
   527 ;;  CH              2   38[BANK0 ] unsigned int 
   528 ;;  TR              2   36[BANK0 ] unsigned int 
   529 ;;  storage         2    0        unsigned int 
   530 ;; Return value:  Size  Location     Type
   531 ;;                  1    wreg      void 
   532 ;; Registers used:
   533 ;;		wreg, fsr0l, fsr0h, status,2, status,0, btemp+1, pclath, cstack
   534 ;; Tracked objects:
   535 ;;		On entry : B00/0
   536 ;;		On exit  : 0/0
   537 ;;		Unchanged: 0/0
   538 ;; Data sizes:     COMMON   BANK0   BANK1   BANK3   BANK2
   539 ;;      Params:         0       0       0       0       0
   540 ;;      Locals:         0      14       0       0       0
   541 ;;      Temps:          0       4       0       0       0
   542 ;;      Totals:         0      18       0       0       0
   543 ;;Total ram usage:       18 bytes
   544 ;; Hardware stack levels required when called: 2
   545 ;; This function calls:
   546 ;;		___fldiv
   547 ;;		___flge
   548 ;;		___flmul
   549 ;;		___fltol
   550 ;;		___lwdiv
   551 ;;		___lwmod
   552 ;;		___wmul
   553 ;;		___xxtofl
   554 ;; This function is called by:
   555 ;;		Startup code after reset
   556 ;; This function uses a non-reentrant model
   557 ;;
   558                           
   559                           
   560                           ;psect for function _main
   561  010F                     _main:
   562  010F                     l1621:	
   563                           ;incstack = 0
   564                           ; Regs used in _main: [wreg-fsr0h+status,2+status,0+btemp+1+pclath+cstack]
   565                           
   566                           
   567                           ;BAI_5_ANH.c: 20:     ANSEL = 0x01;
   568  010F  3001               	movlw	1
   569  0110  1683               	bsf	3,5	;RP0=1, select bank3
   570  0111  1703               	bsf	3,6	;RP1=1, select bank3
   571  0112  0088               	movwf	8	;volatile
   572  0113                     l1623:
   573                           
   574                           ;BAI_5_ANH.c: 21:     ANSELH = 0;
   575  0113  0189               	clrf	9	;volatile
   576  0114                     l1625:
   577                           
   578                           ;BAI_5_ANH.c: 22:     TRISA0 = 1;
   579  0114  1683               	bsf	3,5	;RP0=1, select bank1
   580  0115  1303               	bcf	3,6	;RP1=0, select bank1
   581  0116  1405               	bsf	5,0	;volatile
   582  0117                     l1627:
   583                           
   584                           ;BAI_5_ANH.c: 23:     TRISB = TRISC = TRISD = 0;
   585  0117  0188               	clrf	8	;volatile
   586  0118  0187               	clrf	7	;volatile
   587  0119  0186               	clrf	6	;volatile
   588  011A                     l1629:
   589                           
   590                           ;BAI_5_ANH.c: 24:     PORTB = 0;
   591  011A  1283               	bcf	3,5	;RP0=0, select bank0
   592  011B  1303               	bcf	3,6	;RP1=0, select bank0
   593  011C  0186               	clrf	6	;volatile
   594  011D                     l1631:
   595                           
   596                           ;BAI_5_ANH.c: 25:     PORTC = 0;
   597  011D  0187               	clrf	7	;volatile
   598  011E                     l1633:
   599                           
   600                           ;BAI_5_ANH.c: 26:     PORTD = 0;
   601  011E  0188               	clrf	8	;volatile
   602  011F                     l1635:
   603                           
   604                           ;BAI_5_ANH.c: 27:     ADCON1 = 0x80;
   605  011F  3080               	movlw	128
   606  0120  1683               	bsf	3,5	;RP0=1, select bank1
   607  0121  1303               	bcf	3,6	;RP1=0, select bank1
   608  0122  009F               	movwf	31	;volatile
   609  0123                     l1637:
   610                           
   611                           ;BAI_5_ANH.c: 28:     ADCON0 = 0x81;
   612  0123  3081               	movlw	129
   613  0124  1283               	bcf	3,5	;RP0=0, select bank0
   614  0125  1303               	bcf	3,6	;RP1=0, select bank0
   615  0126  009F               	movwf	31	;volatile
   616  0127                     l1639:
   617  0127                     l1641:
   618                           
   619                           ;BAI_5_ANH.c: 34:         _delay((unsigned long)((6)*(4000000/4000000.0)));
   620  0127  2928               	nop2	;2 cycle nop
   621  0128  2929               	nop2	;2 cycle nop
   622  0129  292A               	nop2	;2 cycle nop
   623  012A                     l1643:
   624                           
   625                           ;BAI_5_ANH.c: 35:         GO = 1;
   626  012A  1283               	bcf	3,5	;RP0=0, select bank0
   627  012B  1303               	bcf	3,6	;RP1=0, select bank0
   628  012C  149F               	bsf	31,1	;volatile
   629  012D                     l34:	
   630                           ;BAI_5_ANH.c: 36:         while(GO);
   631                           
   632  012D  189F               	btfsc	31,1	;volatile
   633  012E  2930               	goto	u2371
   634  012F  2931               	goto	u2370
   635  0130                     u2371:
   636  0130  292D               	goto	l34
   637  0131                     u2370:
   638  0131                     l1645:
   639  0131                     l1647:
   640                           
   641                           ;BAI_5_ANH.c: 38:         Vout = (float)(storage * 5) / 1023;
   642  0131  3044               	movlw	68
   643  0132  00A9               	movwf	___fldiv@a+3
   644  0133  307F               	movlw	127
   645  0134  00A8               	movwf	___fldiv@a+2
   646  0135  30C0               	movlw	192
   647  0136  00A7               	movwf	___fldiv@a+1
   648  0137  3000               	movlw	0
   649  0138  00A6               	movwf	___fldiv@a
   650  0139  3005               	movlw	5
   651  013A  00F2               	movwf	___wmul@multiplicand
   652  013B  3000               	movlw	0
   653  013C  00F3               	movwf	___wmul@multiplicand+1
   654  013D  3085               	movlw	133
   655  013E  00F0               	movwf	___wmul@multiplier
   656  013F  3000               	movlw	0
   657  0140  00F1               	movwf	___wmul@multiplier+1
   658  0141  120A  158A  265C  120A  118A  	fcall	___wmul
   659  0146  0870               	movf	?___wmul,w
   660  0147  1283               	bcf	3,5	;RP0=0, select bank0
   661  0148  1303               	bcf	3,6	;RP1=0, select bank0
   662  0149  00C0               	movwf	??_main
   663  014A  0871               	movf	?___wmul+1,w
   664  014B  00C1               	movwf	??_main+1
   665  014C  01C2               	clrf	??_main+2
   666  014D  01C3               	clrf	??_main+3
   667  014E  0843               	movf	??_main+3,w
   668  014F  00F9               	movwf	___xxtofl@val+3
   669  0150  0842               	movf	??_main+2,w
   670  0151  00F8               	movwf	___xxtofl@val+2
   671  0152  0841               	movf	??_main+1,w
   672  0153  00F7               	movwf	___xxtofl@val+1
   673  0154  0840               	movf	??_main,w
   674  0155  00F6               	movwf	___xxtofl@val
   675  0156  3000               	movlw	0
   676  0157  120A  118A  2053  120A  118A  	fcall	___xxtofl
   677  015C  0879               	movf	?___xxtofl+3,w
   678  015D  1283               	bcf	3,5	;RP0=0, select bank0
   679  015E  1303               	bcf	3,6	;RP1=0, select bank0
   680  015F  00AD               	movwf	___fldiv@b+3
   681  0160  0878               	movf	?___xxtofl+2,w
   682  0161  00AC               	movwf	___fldiv@b+2
   683  0162  0877               	movf	?___xxtofl+1,w
   684  0163  00AB               	movwf	___fldiv@b+1
   685  0164  0876               	movf	?___xxtofl,w
   686  0165  00AA               	movwf	___fldiv@b
   687  0166  120A  118A  22BE  120A  118A  	fcall	___fldiv
   688  016B  1283               	bcf	3,5	;RP0=0, select bank0
   689  016C  1303               	bcf	3,6	;RP1=0, select bank0
   690  016D  0829               	movf	?___fldiv+3,w
   691  016E  00CF               	movwf	main@Vout+3
   692  016F  0828               	movf	?___fldiv+2,w
   693  0170  00CE               	movwf	main@Vout+2
   694  0171  0827               	movf	?___fldiv+1,w
   695  0172  00CD               	movwf	main@Vout+1
   696  0173  0826               	movf	?___fldiv,w
   697  0174  00CC               	movwf	main@Vout
   698  0175                     l1649:
   699                           
   700                           ;BAI_5_ANH.c: 40:         if(Vout < 1) {
   701  0175  084F               	movf	main@Vout+3,w
   702  0176  00F3               	movwf	___flge@ff1+3
   703  0177  084E               	movf	main@Vout+2,w
   704  0178  00F2               	movwf	___flge@ff1+2
   705  0179  084D               	movf	main@Vout+1,w
   706  017A  00F1               	movwf	___flge@ff1+1
   707  017B  084C               	movf	main@Vout,w
   708  017C  00F0               	movwf	___flge@ff1
   709  017D  303F               	movlw	63
   710  017E  00F7               	movwf	___flge@ff2+3
   711  017F  3080               	movlw	128
   712  0180  00F6               	movwf	___flge@ff2+2
   713  0181  3000               	movlw	0
   714  0182  00F5               	movwf	___flge@ff2+1
   715  0183  3000               	movlw	0
   716  0184  00F4               	movwf	___flge@ff2
   717  0185  120A  158A  275E  120A  118A  	fcall	___flge
   718  018A  1803               	btfsc	3,0
   719  018B  298D               	goto	u2381
   720  018C  298E               	goto	u2380
   721  018D                     u2381:
   722  018D  2A14               	goto	l1661
   723  018E                     u2380:
   724  018E                     l1651:
   725                           
   726                           ;BAI_5_ANH.c: 41:             temp = (Vout * 1000);
   727  018E  1283               	bcf	3,5	;RP0=0, select bank0
   728  018F  1303               	bcf	3,6	;RP1=0, select bank0
   729  0190  084F               	movf	main@Vout+3,w
   730  0191  00A7               	movwf	___flmul@a+3
   731  0192  084E               	movf	main@Vout+2,w
   732  0193  00A6               	movwf	___flmul@a+2
   733  0194  084D               	movf	main@Vout+1,w
   734  0195  00A5               	movwf	___flmul@a+1
   735  0196  084C               	movf	main@Vout,w
   736  0197  00A4               	movwf	___flmul@a
   737  0198  3044               	movlw	68
   738  0199  00A3               	movwf	___flmul@b+3
   739  019A  307A               	movlw	122
   740  019B  00A2               	movwf	___flmul@b+2
   741  019C  3000               	movlw	0
   742  019D  00A1               	movwf	___flmul@b+1
   743  019E  3000               	movlw	0
   744  019F  00A0               	movwf	___flmul@b
   745  01A0  120A  118A  249B  120A  118A  	fcall	___flmul
   746  01A5  1283               	bcf	3,5	;RP0=0, select bank0
   747  01A6  1303               	bcf	3,6	;RP1=0, select bank0
   748  01A7  0823               	movf	?___flmul+3,w
   749  01A8  00B8               	movwf	___fltol@f1+3
   750  01A9  0822               	movf	?___flmul+2,w
   751  01AA  00B7               	movwf	___fltol@f1+2
   752  01AB  0821               	movf	?___flmul+1,w
   753  01AC  00B6               	movwf	___fltol@f1+1
   754  01AD  0820               	movf	?___flmul,w
   755  01AE  00B5               	movwf	___fltol@f1
   756  01AF  120A  158A  26E2  120A  118A  	fcall	___fltol
   757  01B4  1283               	bcf	3,5	;RP0=0, select bank0
   758  01B5  1303               	bcf	3,6	;RP1=0, select bank0
   759  01B6  0836               	movf	?___fltol+1,w
   760  01B7  00D1               	movwf	main@temp+1
   761  01B8  0835               	movf	?___fltol,w
   762  01B9  00D0               	movwf	main@temp
   763  01BA                     l1653:
   764                           
   765                           ;BAI_5_ANH.c: 42:             TR = (temp % 100) % 10;
   766  01BA  0851               	movf	main@temp+1,w
   767  01BB  00F3               	movwf	___lwmod@dividend+1
   768  01BC  0850               	movf	main@temp,w
   769  01BD  00F2               	movwf	___lwmod@dividend
   770  01BE  3064               	movlw	100
   771  01BF  00F0               	movwf	___lwmod@divisor
   772  01C0  3000               	movlw	0
   773  01C1  00F1               	movwf	___lwmod@divisor+1
   774  01C2  120A  158A  26A8  120A  118A  	fcall	___lwmod
   775  01C7  0871               	movf	?___lwmod+1,w
   776  01C8  1283               	bcf	3,5	;RP0=0, select bank0
   777  01C9  1303               	bcf	3,6	;RP1=0, select bank0
   778  01CA  00CB               	movwf	_main$653+1
   779  01CB  0870               	movf	?___lwmod,w
   780  01CC  00CA               	movwf	_main$653
   781  01CD                     l1655:
   782                           
   783                           ;BAI_5_ANH.c: 42:             TR = (temp % 100) % 10;
   784  01CD  300A               	movlw	10
   785  01CE  00F0               	movwf	___lwmod@divisor
   786  01CF  3000               	movlw	0
   787  01D0  00F1               	movwf	___lwmod@divisor+1
   788  01D1  084B               	movf	_main$653+1,w
   789  01D2  00F3               	movwf	___lwmod@dividend+1
   790  01D3  084A               	movf	_main$653,w
   791  01D4  00F2               	movwf	___lwmod@dividend
   792  01D5  120A  158A  26A8  120A  118A  	fcall	___lwmod
   793  01DA  0871               	movf	?___lwmod+1,w
   794  01DB  1283               	bcf	3,5	;RP0=0, select bank0
   795  01DC  1303               	bcf	3,6	;RP1=0, select bank0
   796  01DD  00C5               	movwf	main@TR+1
   797  01DE  0870               	movf	?___lwmod,w
   798  01DF  00C4               	movwf	main@TR
   799  01E0                     l1657:
   800                           
   801                           ;BAI_5_ANH.c: 43:             CH = temp / 100;
   802  01E0  3064               	movlw	100
   803  01E1  00F6               	movwf	___lwdiv@divisor
   804  01E2  3000               	movlw	0
   805  01E3  00F7               	movwf	___lwdiv@divisor+1
   806  01E4  0851               	movf	main@temp+1,w
   807  01E5  00F9               	movwf	___lwdiv@dividend+1
   808  01E6  0850               	movf	main@temp,w
   809  01E7  00F8               	movwf	___lwdiv@dividend
   810  01E8  120A  118A  200F  120A  118A  	fcall	___lwdiv
   811  01ED  0877               	movf	?___lwdiv+1,w
   812  01EE  1283               	bcf	3,5	;RP0=0, select bank0
   813  01EF  1303               	bcf	3,6	;RP1=0, select bank0
   814  01F0  00C7               	movwf	main@CH+1
   815  01F1  0876               	movf	?___lwdiv,w
   816  01F2  00C6               	movwf	main@CH
   817  01F3                     l1659:
   818                           
   819                           ;BAI_5_ANH.c: 44:             DV = (temp % 100) / 10;
   820  01F3  300A               	movlw	10
   821  01F4  00F6               	movwf	___lwdiv@divisor
   822  01F5  3000               	movlw	0
   823  01F6  00F7               	movwf	___lwdiv@divisor+1
   824  01F7  0851               	movf	main@temp+1,w
   825  01F8  00F3               	movwf	___lwmod@dividend+1
   826  01F9  0850               	movf	main@temp,w
   827  01FA  00F2               	movwf	___lwmod@dividend
   828  01FB  3064               	movlw	100
   829  01FC  00F0               	movwf	___lwmod@divisor
   830  01FD  3000               	movlw	0
   831  01FE  00F1               	movwf	___lwmod@divisor+1
   832  01FF  120A  158A  26A8  120A  118A  	fcall	___lwmod
   833  0204  0871               	movf	?___lwmod+1,w
   834  0205  00F9               	movwf	___lwdiv@dividend+1
   835  0206  0870               	movf	?___lwmod,w
   836  0207  00F8               	movwf	___lwdiv@dividend
   837  0208  120A  118A  200F  120A  118A  	fcall	___lwdiv
   838  020D  0877               	movf	?___lwdiv+1,w
   839  020E  1283               	bcf	3,5	;RP0=0, select bank0
   840  020F  1303               	bcf	3,6	;RP1=0, select bank0
   841  0210  00C9               	movwf	main@DV+1
   842  0211  0876               	movf	?___lwdiv,w
   843  0212  00C8               	movwf	main@DV
   844                           
   845                           ;BAI_5_ANH.c: 45:         }else {
   846  0213  2A99               	goto	l1671
   847  0214                     l1661:
   848                           
   849                           ;BAI_5_ANH.c: 46:             temp = Vout * 100;
   850  0214  1283               	bcf	3,5	;RP0=0, select bank0
   851  0215  1303               	bcf	3,6	;RP1=0, select bank0
   852  0216  084F               	movf	main@Vout+3,w
   853  0217  00A7               	movwf	___flmul@a+3
   854  0218  084E               	movf	main@Vout+2,w
   855  0219  00A6               	movwf	___flmul@a+2
   856  021A  084D               	movf	main@Vout+1,w
   857  021B  00A5               	movwf	___flmul@a+1
   858  021C  084C               	movf	main@Vout,w
   859  021D  00A4               	movwf	___flmul@a
   860  021E  3042               	movlw	66
   861  021F  00A3               	movwf	___flmul@b+3
   862  0220  30C8               	movlw	200
   863  0221  00A2               	movwf	___flmul@b+2
   864  0222  3000               	movlw	0
   865  0223  00A1               	movwf	___flmul@b+1
   866  0224  3000               	movlw	0
   867  0225  00A0               	movwf	___flmul@b
   868  0226  120A  118A  249B  120A  118A  	fcall	___flmul
   869  022B  1283               	bcf	3,5	;RP0=0, select bank0
   870  022C  1303               	bcf	3,6	;RP1=0, select bank0
   871  022D  0823               	movf	?___flmul+3,w
   872  022E  00B8               	movwf	___fltol@f1+3
   873  022F  0822               	movf	?___flmul+2,w
   874  0230  00B7               	movwf	___fltol@f1+2
   875  0231  0821               	movf	?___flmul+1,w
   876  0232  00B6               	movwf	___fltol@f1+1
   877  0233  0820               	movf	?___flmul,w
   878  0234  00B5               	movwf	___fltol@f1
   879  0235  120A  158A  26E2  120A  118A  	fcall	___fltol
   880  023A  1283               	bcf	3,5	;RP0=0, select bank0
   881  023B  1303               	bcf	3,6	;RP1=0, select bank0
   882  023C  0836               	movf	?___fltol+1,w
   883  023D  00D1               	movwf	main@temp+1
   884  023E  0835               	movf	?___fltol,w
   885  023F  00D0               	movwf	main@temp
   886  0240                     l1663:
   887                           
   888                           ;BAI_5_ANH.c: 47:       TR = temp / 100;
   889  0240  3064               	movlw	100
   890  0241  00F6               	movwf	___lwdiv@divisor
   891  0242  3000               	movlw	0
   892  0243  00F7               	movwf	___lwdiv@divisor+1
   893  0244  0851               	movf	main@temp+1,w
   894  0245  00F9               	movwf	___lwdiv@dividend+1
   895  0246  0850               	movf	main@temp,w
   896  0247  00F8               	movwf	___lwdiv@dividend
   897  0248  120A  118A  200F  120A  118A  	fcall	___lwdiv
   898  024D  0877               	movf	?___lwdiv+1,w
   899  024E  1283               	bcf	3,5	;RP0=0, select bank0
   900  024F  1303               	bcf	3,6	;RP1=0, select bank0
   901  0250  00C5               	movwf	main@TR+1
   902  0251  0876               	movf	?___lwdiv,w
   903  0252  00C4               	movwf	main@TR
   904  0253                     l1665:
   905                           
   906                           ;BAI_5_ANH.c: 48:             CH = (temp % 100) / 10;
   907  0253  300A               	movlw	10
   908  0254  00F6               	movwf	___lwdiv@divisor
   909  0255  3000               	movlw	0
   910  0256  00F7               	movwf	___lwdiv@divisor+1
   911  0257  0851               	movf	main@temp+1,w
   912  0258  00F3               	movwf	___lwmod@dividend+1
   913  0259  0850               	movf	main@temp,w
   914  025A  00F2               	movwf	___lwmod@dividend
   915  025B  3064               	movlw	100
   916  025C  00F0               	movwf	___lwmod@divisor
   917  025D  3000               	movlw	0
   918  025E  00F1               	movwf	___lwmod@divisor+1
   919  025F  120A  158A  26A8  120A  118A  	fcall	___lwmod
   920  0264  0871               	movf	?___lwmod+1,w
   921  0265  00F9               	movwf	___lwdiv@dividend+1
   922  0266  0870               	movf	?___lwmod,w
   923  0267  00F8               	movwf	___lwdiv@dividend
   924  0268  120A  118A  200F  120A  118A  	fcall	___lwdiv
   925  026D  0877               	movf	?___lwdiv+1,w
   926  026E  1283               	bcf	3,5	;RP0=0, select bank0
   927  026F  1303               	bcf	3,6	;RP1=0, select bank0
   928  0270  00C7               	movwf	main@CH+1
   929  0271  0876               	movf	?___lwdiv,w
   930  0272  00C6               	movwf	main@CH
   931  0273                     l1667:
   932                           
   933                           ;BAI_5_ANH.c: 49:             DV = (temp % 100) % 10;
   934  0273  0851               	movf	main@temp+1,w
   935  0274  00F3               	movwf	___lwmod@dividend+1
   936  0275  0850               	movf	main@temp,w
   937  0276  00F2               	movwf	___lwmod@dividend
   938  0277  3064               	movlw	100
   939  0278  00F0               	movwf	___lwmod@divisor
   940  0279  3000               	movlw	0
   941  027A  00F1               	movwf	___lwmod@divisor+1
   942  027B  120A  158A  26A8  120A  118A  	fcall	___lwmod
   943  0280  0871               	movf	?___lwmod+1,w
   944  0281  1283               	bcf	3,5	;RP0=0, select bank0
   945  0282  1303               	bcf	3,6	;RP1=0, select bank0
   946  0283  00CB               	movwf	_main$653+1
   947  0284  0870               	movf	?___lwmod,w
   948  0285  00CA               	movwf	_main$653
   949  0286                     l1669:
   950                           
   951                           ;BAI_5_ANH.c: 49:             DV = (temp % 100) % 10;
   952  0286  300A               	movlw	10
   953  0287  00F0               	movwf	___lwmod@divisor
   954  0288  3000               	movlw	0
   955  0289  00F1               	movwf	___lwmod@divisor+1
   956  028A  084B               	movf	_main$653+1,w
   957  028B  00F3               	movwf	___lwmod@dividend+1
   958  028C  084A               	movf	_main$653,w
   959  028D  00F2               	movwf	___lwmod@dividend
   960  028E  120A  158A  26A8  120A  118A  	fcall	___lwmod
   961  0293  0871               	movf	?___lwmod+1,w
   962  0294  1283               	bcf	3,5	;RP0=0, select bank0
   963  0295  1303               	bcf	3,6	;RP1=0, select bank0
   964  0296  00C9               	movwf	main@DV+1
   965  0297  0870               	movf	?___lwmod,w
   966  0298  00C8               	movwf	main@DV
   967  0299                     l1671:
   968                           
   969                           ;BAI_5_ANH.c: 51:   PORTC = led[TR];
   970  0299  0844               	movf	main@TR,w
   971  029A  00C0               	movwf	??_main
   972  029B  0740               	addwf	??_main,w
   973  029C  3E01               	addlw	low ((main@led-__stringbase)| (0+32768))
   974  029D  0084               	movwf	4
   975  029E  120A  158A  2000  120A  118A  	fcall	stringdir
   976  02A3  0087               	movwf	7	;volatile
   977  02A4                     l1673:
   978                           
   979                           ;BAI_5_ANH.c: 52:   PORTD = led[CH];
   980  02A4  0846               	movf	main@CH,w
   981  02A5  00C0               	movwf	??_main
   982  02A6  0740               	addwf	??_main,w
   983  02A7  3E01               	addlw	low ((main@led-__stringbase)| (0+32768))
   984  02A8  0084               	movwf	4
   985  02A9  120A  158A  2000  120A  118A  	fcall	stringdir
   986  02AE  0088               	movwf	8	;volatile
   987  02AF                     l1675:
   988                           
   989                           ;BAI_5_ANH.c: 53:   PORTB = led[DV];
   990  02AF  0848               	movf	main@DV,w
   991  02B0  00C0               	movwf	??_main
   992  02B1  0740               	addwf	??_main,w
   993  02B2  3E01               	addlw	low ((main@led-__stringbase)| (0+32768))
   994  02B3  0084               	movwf	4
   995  02B4  120A  158A  2000  120A  118A  	fcall	stringdir
   996  02B9  0086               	movwf	6	;volatile
   997  02BA  2927               	goto	l1641
   998  02BB  120A  118A  2800   	ljmp	start
   999  02BE                     __end_of_main:
  1000                           
  1001                           	psect	text1
  1002  0053                     __ptext1:	
  1003 ;; *************** function ___xxtofl *****************
  1004 ;; Defined at:
  1005 ;;		line 10 in file "C:\Program Files\Microchip\xc8\v2.32\pic\sources\c90\common\xxtofl.c"
  1006 ;; Parameters:    Size  Location     Type
  1007 ;;  sign            1    wreg     unsigned char 
  1008 ;;  val             4    6[COMMON] long 
  1009 ;; Auto vars:     Size  Location     Type
  1010 ;;  sign            1    0[BANK0 ] unsigned char 
  1011 ;;  arg             4    2[BANK0 ] unsigned long 
  1012 ;;  exp             1    1[BANK0 ] unsigned char 
  1013 ;; Return value:  Size  Location     Type
  1014 ;;                  4    6[COMMON] unsigned char 
  1015 ;; Registers used:
  1016 ;;		wreg, status,2, status,0
  1017 ;; Tracked objects:
  1018 ;;		On entry : 0/0
  1019 ;;		On exit  : 0/0
  1020 ;;		Unchanged: 0/0
  1021 ;; Data sizes:     COMMON   BANK0   BANK1   BANK3   BANK2
  1022 ;;      Params:         4       0       0       0       0
  1023 ;;      Locals:         0       6       0       0       0
  1024 ;;      Temps:          4       0       0       0       0
  1025 ;;      Totals:         8       6       0       0       0
  1026 ;;Total ram usage:       14 bytes
  1027 ;; Hardware stack levels used: 1
  1028 ;; This function calls:
  1029 ;;		Nothing
  1030 ;; This function is called by:
  1031 ;;		_main
  1032 ;; This function uses a non-reentrant model
  1033 ;;
  1034                           
  1035                           
  1036                           ;psect for function ___xxtofl
  1037  0053                     ___xxtofl:
  1038                           
  1039                           ;incstack = 0
  1040                           ; Regs used in ___xxtofl: [wreg+status,2+status,0]
  1041                           ;___xxtofl@sign stored from wreg
  1042  0053  1283               	bcf	3,5	;RP0=0, select bank0
  1043  0054  1303               	bcf	3,6	;RP1=0, select bank0
  1044  0055  00A0               	movwf	___xxtofl@sign
  1045  0056                     l1577:
  1046  0056  0820               	movf	___xxtofl@sign,w
  1047  0057  1903               	btfsc	3,2
  1048  0058  285A               	goto	u2231
  1049  0059  285B               	goto	u2230
  1050  005A                     u2231:
  1051  005A  286F               	goto	l1583
  1052  005B                     u2230:
  1053  005B                     l1579:
  1054  005B  1FF9               	btfss	___xxtofl@val+3,7
  1055  005C  285E               	goto	u2241
  1056  005D  285F               	goto	u2240
  1057  005E                     u2241:
  1058  005E  286F               	goto	l1583
  1059  005F                     u2240:
  1060  005F                     l1581:
  1061  005F  0976               	comf	___xxtofl@val,w
  1062  0060  00A2               	movwf	___xxtofl@arg
  1063  0061  0977               	comf	___xxtofl@val+1,w
  1064  0062  00A3               	movwf	___xxtofl@arg+1
  1065  0063  0978               	comf	___xxtofl@val+2,w
  1066  0064  00A4               	movwf	___xxtofl@arg+2
  1067  0065  0979               	comf	___xxtofl@val+3,w
  1068  0066  00A5               	movwf	___xxtofl@arg+3
  1069  0067  0AA2               	incf	___xxtofl@arg,f
  1070  0068  1903               	skipnz
  1071  0069  0AA3               	incf	___xxtofl@arg+1,f
  1072  006A  1903               	skipnz
  1073  006B  0AA4               	incf	___xxtofl@arg+2,f
  1074  006C  1903               	skipnz
  1075  006D  0AA5               	incf	___xxtofl@arg+3,f
  1076  006E  2877               	goto	l560
  1077  006F                     l1583:
  1078  006F  0879               	movf	___xxtofl@val+3,w
  1079  0070  00A5               	movwf	___xxtofl@arg+3
  1080  0071  0878               	movf	___xxtofl@val+2,w
  1081  0072  00A4               	movwf	___xxtofl@arg+2
  1082  0073  0877               	movf	___xxtofl@val+1,w
  1083  0074  00A3               	movwf	___xxtofl@arg+1
  1084  0075  0876               	movf	___xxtofl@val,w
  1085  0076  00A2               	movwf	___xxtofl@arg
  1086  0077                     l560:
  1087  0077  0879               	movf	___xxtofl@val+3,w
  1088  0078  0478               	iorwf	___xxtofl@val+2,w
  1089  0079  0477               	iorwf	___xxtofl@val+1,w
  1090  007A  0476               	iorwf	___xxtofl@val,w
  1091  007B  1D03               	skipz
  1092  007C  287E               	goto	u2251
  1093  007D  287F               	goto	u2250
  1094  007E                     u2251:
  1095  007E  2888               	goto	l1589
  1096  007F                     u2250:
  1097  007F                     l1585:
  1098  007F  3000               	movlw	0
  1099  0080  00F9               	movwf	?___xxtofl+3
  1100  0081  3000               	movlw	0
  1101  0082  00F8               	movwf	?___xxtofl+2
  1102  0083  3000               	movlw	0
  1103  0084  00F7               	movwf	?___xxtofl+1
  1104  0085  3000               	movlw	0
  1105  0086  00F6               	movwf	?___xxtofl
  1106  0087  290E               	goto	l562
  1107  0088                     l1589:
  1108  0088  3096               	movlw	150
  1109  0089  00FA               	movwf	??___xxtofl
  1110  008A  087A               	movf	??___xxtofl,w
  1111  008B  00A1               	movwf	___xxtofl@exp
  1112  008C  289A               	goto	l1593
  1113  008D                     l1591:
  1114  008D  3001               	movlw	1
  1115  008E  00FA               	movwf	??___xxtofl
  1116  008F  087A               	movf	??___xxtofl,w
  1117  0090  07A1               	addwf	___xxtofl@exp,f
  1118  0091  3001               	movlw	1
  1119  0092                     u2265:
  1120  0092  1003               	clrc
  1121  0093  0CA5               	rrf	___xxtofl@arg+3,f
  1122  0094  0CA4               	rrf	___xxtofl@arg+2,f
  1123  0095  0CA3               	rrf	___xxtofl@arg+1,f
  1124  0096  0CA2               	rrf	___xxtofl@arg,f
  1125  0097  3EFF               	addlw	-1
  1126  0098  1D03               	skipz
  1127  0099  2892               	goto	u2265
  1128  009A                     l1593:
  1129  009A  30FE               	movlw	254
  1130  009B  0525               	andwf	___xxtofl@arg+3,w
  1131  009C  1D03               	btfss	3,2
  1132  009D  289F               	goto	u2271
  1133  009E  28A0               	goto	u2270
  1134  009F                     u2271:
  1135  009F  288D               	goto	l1591
  1136  00A0                     u2270:
  1137  00A0  28BC               	goto	l566
  1138  00A1                     l1595:
  1139  00A1  3001               	movlw	1
  1140  00A2  00FA               	movwf	??___xxtofl
  1141  00A3  087A               	movf	??___xxtofl,w
  1142  00A4  07A1               	addwf	___xxtofl@exp,f
  1143  00A5                     l1597:
  1144  00A5  3001               	movlw	1
  1145  00A6  07A2               	addwf	___xxtofl@arg,f
  1146  00A7  3000               	movlw	0
  1147  00A8  1803               	skipnc
  1148  00A9  3001               	movlw	1
  1149  00AA  07A3               	addwf	___xxtofl@arg+1,f
  1150  00AB  3000               	movlw	0
  1151  00AC  1803               	skipnc
  1152  00AD  3001               	movlw	1
  1153  00AE  07A4               	addwf	___xxtofl@arg+2,f
  1154  00AF  3000               	movlw	0
  1155  00B0  1803               	skipnc
  1156  00B1  3001               	movlw	1
  1157  00B2  07A5               	addwf	___xxtofl@arg+3,f
  1158  00B3                     l1599:
  1159  00B3  3001               	movlw	1
  1160  00B4                     u2285:
  1161  00B4  1003               	clrc
  1162  00B5  0CA5               	rrf	___xxtofl@arg+3,f
  1163  00B6  0CA4               	rrf	___xxtofl@arg+2,f
  1164  00B7  0CA3               	rrf	___xxtofl@arg+1,f
  1165  00B8  0CA2               	rrf	___xxtofl@arg,f
  1166  00B9  3EFF               	addlw	-1
  1167  00BA  1D03               	skipz
  1168  00BB  28B4               	goto	u2285
  1169  00BC                     l566:
  1170  00BC  30FF               	movlw	255
  1171  00BD  0525               	andwf	___xxtofl@arg+3,w
  1172  00BE  1D03               	btfss	3,2
  1173  00BF  28C1               	goto	u2291
  1174  00C0  28C2               	goto	u2290
  1175  00C1                     u2291:
  1176  00C1  28A1               	goto	l1595
  1177  00C2                     u2290:
  1178  00C2  28CE               	goto	l1603
  1179  00C3                     l1601:
  1180  00C3  3001               	movlw	1
  1181  00C4  02A1               	subwf	___xxtofl@exp,f
  1182  00C5  3001               	movlw	1
  1183  00C6  00FA               	movwf	??___xxtofl
  1184  00C7                     u2305:
  1185  00C7  1003               	clrc
  1186  00C8  0DA2               	rlf	___xxtofl@arg,f
  1187  00C9  0DA3               	rlf	___xxtofl@arg+1,f
  1188  00CA  0DA4               	rlf	___xxtofl@arg+2,f
  1189  00CB  0DA5               	rlf	___xxtofl@arg+3,f
  1190  00CC  0BFA               	decfsz	??___xxtofl,f
  1191  00CD  28C7               	goto	u2305
  1192  00CE                     l1603:
  1193  00CE  1BA4               	btfsc	___xxtofl@arg+2,7
  1194  00CF  28D1               	goto	u2311
  1195  00D0  28D2               	goto	u2310
  1196  00D1                     u2311:
  1197  00D1  28D8               	goto	l573
  1198  00D2                     u2310:
  1199  00D2                     l1605:
  1200  00D2  3002               	movlw	2
  1201  00D3  0221               	subwf	___xxtofl@exp,w
  1202  00D4  1803               	skipnc
  1203  00D5  28D7               	goto	u2321
  1204  00D6  28D8               	goto	u2320
  1205  00D7                     u2321:
  1206  00D7  28C3               	goto	l1601
  1207  00D8                     u2320:
  1208  00D8                     l573:
  1209  00D8  1821               	btfsc	___xxtofl@exp,0
  1210  00D9  28DB               	goto	u2331
  1211  00DA  28DC               	goto	u2330
  1212  00DB                     u2331:
  1213  00DB  28E4               	goto	l574
  1214  00DC                     u2330:
  1215  00DC                     l1607:
  1216  00DC  30FF               	movlw	255
  1217  00DD  05A2               	andwf	___xxtofl@arg,f
  1218  00DE  30FF               	movlw	255
  1219  00DF  05A3               	andwf	___xxtofl@arg+1,f
  1220  00E0  307F               	movlw	127
  1221  00E1  05A4               	andwf	___xxtofl@arg+2,f
  1222  00E2  30FF               	movlw	255
  1223  00E3  05A5               	andwf	___xxtofl@arg+3,f
  1224  00E4                     l574:
  1225  00E4  1003               	clrc
  1226  00E5  0CA1               	rrf	___xxtofl@exp,f
  1227  00E6                     l1609:
  1228  00E6  0821               	movf	___xxtofl@exp,w
  1229  00E7  00FA               	movwf	??___xxtofl
  1230  00E8  01FB               	clrf	??___xxtofl+1
  1231  00E9  01FC               	clrf	??___xxtofl+2
  1232  00EA  01FD               	clrf	??___xxtofl+3
  1233  00EB  3018               	movlw	24
  1234  00EC                     u2345:
  1235  00EC  1003               	clrc
  1236  00ED  0DFA               	rlf	??___xxtofl,f
  1237  00EE  0DFB               	rlf	??___xxtofl+1,f
  1238  00EF  0DFC               	rlf	??___xxtofl+2,f
  1239  00F0  0DFD               	rlf	??___xxtofl+3,f
  1240  00F1                     u2340:
  1241  00F1  3EFF               	addlw	-1
  1242  00F2  1D03               	skipz
  1243  00F3  28EC               	goto	u2345
  1244  00F4  087A               	movf	??___xxtofl,w
  1245  00F5  04A2               	iorwf	___xxtofl@arg,f
  1246  00F6  087B               	movf	??___xxtofl+1,w
  1247  00F7  04A3               	iorwf	___xxtofl@arg+1,f
  1248  00F8  087C               	movf	??___xxtofl+2,w
  1249  00F9  04A4               	iorwf	___xxtofl@arg+2,f
  1250  00FA  087D               	movf	??___xxtofl+3,w
  1251  00FB  04A5               	iorwf	___xxtofl@arg+3,f
  1252  00FC                     l1611:
  1253  00FC  0820               	movf	___xxtofl@sign,w
  1254  00FD  1903               	btfsc	3,2
  1255  00FE  2900               	goto	u2351
  1256  00FF  2901               	goto	u2350
  1257  0100                     u2351:
  1258  0100  2906               	goto	l1617
  1259  0101                     u2350:
  1260  0101                     l1613:
  1261  0101  1FF9               	btfss	___xxtofl@val+3,7
  1262  0102  2904               	goto	u2361
  1263  0103  2905               	goto	u2360
  1264  0104                     u2361:
  1265  0104  2906               	goto	l1617
  1266  0105                     u2360:
  1267  0105                     l1615:
  1268  0105  17A5               	bsf	___xxtofl@arg+3,7
  1269  0106                     l1617:
  1270  0106  0825               	movf	___xxtofl@arg+3,w
  1271  0107  00F9               	movwf	?___xxtofl+3
  1272  0108  0824               	movf	___xxtofl@arg+2,w
  1273  0109  00F8               	movwf	?___xxtofl+2
  1274  010A  0823               	movf	___xxtofl@arg+1,w
  1275  010B  00F7               	movwf	?___xxtofl+1
  1276  010C  0822               	movf	___xxtofl@arg,w
  1277  010D  00F6               	movwf	?___xxtofl
  1278  010E                     l562:
  1279  010E  0008               	return
  1280  010F                     __end_of___xxtofl:
  1281                           
  1282                           	psect	text2
  1283  0E5C                     __ptext2:	
  1284 ;; *************** function ___wmul *****************
  1285 ;; Defined at:
  1286 ;;		line 15 in file "C:\Program Files\Microchip\xc8\v2.32\pic\sources\c90\common\Umul16.c"
  1287 ;; Parameters:    Size  Location     Type
  1288 ;;  multiplier      2    0[COMMON] unsigned int 
  1289 ;;  multiplicand    2    2[COMMON] unsigned int 
  1290 ;; Auto vars:     Size  Location     Type
  1291 ;;  product         2    4[COMMON] unsigned int 
  1292 ;; Return value:  Size  Location     Type
  1293 ;;                  2    0[COMMON] unsigned int 
  1294 ;; Registers used:
  1295 ;;		wreg, status,2, status,0
  1296 ;; Tracked objects:
  1297 ;;		On entry : 0/0
  1298 ;;		On exit  : 0/0
  1299 ;;		Unchanged: 0/0
  1300 ;; Data sizes:     COMMON   BANK0   BANK1   BANK3   BANK2
  1301 ;;      Params:         4       0       0       0       0
  1302 ;;      Locals:         2       0       0       0       0
  1303 ;;      Temps:          0       0       0       0       0
  1304 ;;      Totals:         6       0       0       0       0
  1305 ;;Total ram usage:        6 bytes
  1306 ;; Hardware stack levels used: 1
  1307 ;; This function calls:
  1308 ;;		Nothing
  1309 ;; This function is called by:
  1310 ;;		_main
  1311 ;; This function uses a non-reentrant model
  1312 ;;
  1313                           
  1314                           
  1315                           ;psect for function ___wmul
  1316  0E5C                     ___wmul:
  1317  0E5C                     l1177:	
  1318                           ;incstack = 0
  1319                           ; Regs used in ___wmul: [wreg+status,2+status,0]
  1320                           
  1321  0E5C  01F4               	clrf	___wmul@product
  1322  0E5D  01F5               	clrf	___wmul@product+1
  1323  0E5E                     l1179:
  1324  0E5E  1C70               	btfss	___wmul@multiplier,0
  1325  0E5F  2E61               	goto	u1231
  1326  0E60  2E62               	goto	u1230
  1327  0E61                     u1231:
  1328  0E61  2E68               	goto	l127
  1329  0E62                     u1230:
  1330  0E62                     l1181:
  1331  0E62  0872               	movf	___wmul@multiplicand,w
  1332  0E63  07F4               	addwf	___wmul@product,f
  1333  0E64  1803               	skipnc
  1334  0E65  0AF5               	incf	___wmul@product+1,f
  1335  0E66  0873               	movf	___wmul@multiplicand+1,w
  1336  0E67  07F5               	addwf	___wmul@product+1,f
  1337  0E68                     l127:
  1338  0E68  3001               	movlw	1
  1339  0E69                     u1245:
  1340  0E69  1003               	clrc
  1341  0E6A  0DF2               	rlf	___wmul@multiplicand,f
  1342  0E6B  0DF3               	rlf	___wmul@multiplicand+1,f
  1343  0E6C  3EFF               	addlw	-1
  1344  0E6D  1D03               	skipz
  1345  0E6E  2E69               	goto	u1245
  1346  0E6F                     l1183:
  1347  0E6F  3001               	movlw	1
  1348  0E70                     u1255:
  1349  0E70  1003               	clrc
  1350  0E71  0CF1               	rrf	___wmul@multiplier+1,f
  1351  0E72  0CF0               	rrf	___wmul@multiplier,f
  1352  0E73  3EFF               	addlw	-1
  1353  0E74  1D03               	skipz
  1354  0E75  2E70               	goto	u1255
  1355  0E76                     l1185:
  1356  0E76  0870               	movf	___wmul@multiplier,w
  1357  0E77  0471               	iorwf	___wmul@multiplier+1,w
  1358  0E78  1D03               	btfss	3,2
  1359  0E79  2E7B               	goto	u1261
  1360  0E7A  2E7C               	goto	u1260
  1361  0E7B                     u1261:
  1362  0E7B  2E5E               	goto	l1179
  1363  0E7C                     u1260:
  1364  0E7C                     l1187:
  1365  0E7C  0875               	movf	___wmul@product+1,w
  1366  0E7D  00F1               	movwf	?___wmul+1
  1367  0E7E  0874               	movf	___wmul@product,w
  1368  0E7F  00F0               	movwf	?___wmul
  1369  0E80                     l129:
  1370  0E80  0008               	return
  1371  0E81                     __end_of___wmul:
  1372                           
  1373                           	psect	text3
  1374  0EA8                     __ptext3:	
  1375 ;; *************** function ___lwmod *****************
  1376 ;; Defined at:
  1377 ;;		line 5 in file "C:\Program Files\Microchip\xc8\v2.32\pic\sources\c90\common\lwmod.c"
  1378 ;; Parameters:    Size  Location     Type
  1379 ;;  divisor         2    0[COMMON] unsigned int 
  1380 ;;  dividend        2    2[COMMON] unsigned int 
  1381 ;; Auto vars:     Size  Location     Type
  1382 ;;  counter         1    5[COMMON] unsigned char 
  1383 ;; Return value:  Size  Location     Type
  1384 ;;                  2    0[COMMON] unsigned int 
  1385 ;; Registers used:
  1386 ;;		wreg, status,2, status,0
  1387 ;; Tracked objects:
  1388 ;;		On entry : 0/0
  1389 ;;		On exit  : 0/0
  1390 ;;		Unchanged: 0/0
  1391 ;; Data sizes:     COMMON   BANK0   BANK1   BANK3   BANK2
  1392 ;;      Params:         4       0       0       0       0
  1393 ;;      Locals:         1       0       0       0       0
  1394 ;;      Temps:          1       0       0       0       0
  1395 ;;      Totals:         6       0       0       0       0
  1396 ;;Total ram usage:        6 bytes
  1397 ;; Hardware stack levels used: 1
  1398 ;; This function calls:
  1399 ;;		Nothing
  1400 ;; This function is called by:
  1401 ;;		_main
  1402 ;; This function uses a non-reentrant model
  1403 ;;
  1404                           
  1405                           
  1406                           ;psect for function ___lwmod
  1407  0EA8                     ___lwmod:
  1408  0EA8                     l1273:	
  1409                           ;incstack = 0
  1410                           ; Regs used in ___lwmod: [wreg+status,2+status,0]
  1411                           
  1412  0EA8  0870               	movf	___lwmod@divisor,w
  1413  0EA9  0471               	iorwf	___lwmod@divisor+1,w
  1414  0EAA  1903               	btfsc	3,2
  1415  0EAB  2EAD               	goto	u1511
  1416  0EAC  2EAE               	goto	u1510
  1417  0EAD                     u1511:
  1418  0EAD  2EDD               	goto	l1291
  1419  0EAE                     u1510:
  1420  0EAE                     l1275:
  1421  0EAE  01F5               	clrf	___lwmod@counter
  1422  0EAF  0AF5               	incf	___lwmod@counter,f
  1423  0EB0  2EBC               	goto	l1281
  1424  0EB1                     l1277:
  1425  0EB1  3001               	movlw	1
  1426  0EB2                     u1525:
  1427  0EB2  1003               	clrc
  1428  0EB3  0DF0               	rlf	___lwmod@divisor,f
  1429  0EB4  0DF1               	rlf	___lwmod@divisor+1,f
  1430  0EB5  3EFF               	addlw	-1
  1431  0EB6  1D03               	skipz
  1432  0EB7  2EB2               	goto	u1525
  1433  0EB8                     l1279:
  1434  0EB8  3001               	movlw	1
  1435  0EB9  00F4               	movwf	??___lwmod
  1436  0EBA  0874               	movf	??___lwmod,w
  1437  0EBB  07F5               	addwf	___lwmod@counter,f
  1438  0EBC                     l1281:
  1439  0EBC  1FF1               	btfss	___lwmod@divisor+1,7
  1440  0EBD  2EBF               	goto	u1531
  1441  0EBE  2EC0               	goto	u1530
  1442  0EBF                     u1531:
  1443  0EBF  2EB1               	goto	l1277
  1444  0EC0                     u1530:
  1445  0EC0                     l1283:
  1446  0EC0  0871               	movf	___lwmod@divisor+1,w
  1447  0EC1  0273               	subwf	___lwmod@dividend+1,w
  1448  0EC2  1D03               	skipz
  1449  0EC3  2EC6               	goto	u1545
  1450  0EC4  0870               	movf	___lwmod@divisor,w
  1451  0EC5  0272               	subwf	___lwmod@dividend,w
  1452  0EC6                     u1545:
  1453  0EC6  1C03               	skipc
  1454  0EC7  2EC9               	goto	u1541
  1455  0EC8  2ECA               	goto	u1540
  1456  0EC9                     u1541:
  1457  0EC9  2ED0               	goto	l1287
  1458  0ECA                     u1540:
  1459  0ECA                     l1285:
  1460  0ECA  0870               	movf	___lwmod@divisor,w
  1461  0ECB  02F2               	subwf	___lwmod@dividend,f
  1462  0ECC  0871               	movf	___lwmod@divisor+1,w
  1463  0ECD  1C03               	skipc
  1464  0ECE  03F3               	decf	___lwmod@dividend+1,f
  1465  0ECF  02F3               	subwf	___lwmod@dividend+1,f
  1466  0ED0                     l1287:
  1467  0ED0  3001               	movlw	1
  1468  0ED1                     u1555:
  1469  0ED1  1003               	clrc
  1470  0ED2  0CF1               	rrf	___lwmod@divisor+1,f
  1471  0ED3  0CF0               	rrf	___lwmod@divisor,f
  1472  0ED4  3EFF               	addlw	-1
  1473  0ED5  1D03               	skipz
  1474  0ED6  2ED1               	goto	u1555
  1475  0ED7                     l1289:
  1476  0ED7  3001               	movlw	1
  1477  0ED8  02F5               	subwf	___lwmod@counter,f
  1478  0ED9  1D03               	btfss	3,2
  1479  0EDA  2EDC               	goto	u1561
  1480  0EDB  2EDD               	goto	u1560
  1481  0EDC                     u1561:
  1482  0EDC  2EC0               	goto	l1283
  1483  0EDD                     u1560:
  1484  0EDD                     l1291:
  1485  0EDD  0873               	movf	___lwmod@dividend+1,w
  1486  0EDE  00F1               	movwf	?___lwmod+1
  1487  0EDF  0872               	movf	___lwmod@dividend,w
  1488  0EE0  00F0               	movwf	?___lwmod
  1489  0EE1                     l409:
  1490  0EE1  0008               	return
  1491  0EE2                     __end_of___lwmod:
  1492                           
  1493                           	psect	text4
  1494  000F                     __ptext4:	
  1495 ;; *************** function ___lwdiv *****************
  1496 ;; Defined at:
  1497 ;;		line 5 in file "C:\Program Files\Microchip\xc8\v2.32\pic\sources\c90\common\lwdiv.c"
  1498 ;; Parameters:    Size  Location     Type
  1499 ;;  divisor         2    6[COMMON] unsigned int 
  1500 ;;  dividend        2    8[COMMON] unsigned int 
  1501 ;; Auto vars:     Size  Location     Type
  1502 ;;  quotient        2   11[COMMON] unsigned int 
  1503 ;;  counter         1   13[COMMON] unsigned char 
  1504 ;; Return value:  Size  Location     Type
  1505 ;;                  2    6[COMMON] unsigned int 
  1506 ;; Registers used:
  1507 ;;		wreg, status,2, status,0
  1508 ;; Tracked objects:
  1509 ;;		On entry : 0/0
  1510 ;;		On exit  : 0/0
  1511 ;;		Unchanged: 0/0
  1512 ;; Data sizes:     COMMON   BANK0   BANK1   BANK3   BANK2
  1513 ;;      Params:         4       0       0       0       0
  1514 ;;      Locals:         3       0       0       0       0
  1515 ;;      Temps:          1       0       0       0       0
  1516 ;;      Totals:         8       0       0       0       0
  1517 ;;Total ram usage:        8 bytes
  1518 ;; Hardware stack levels used: 1
  1519 ;; This function calls:
  1520 ;;		Nothing
  1521 ;; This function is called by:
  1522 ;;		_main
  1523 ;; This function uses a non-reentrant model
  1524 ;;
  1525                           
  1526                           
  1527                           ;psect for function ___lwdiv
  1528  000F                     ___lwdiv:
  1529  000F                     l1247:	
  1530                           ;incstack = 0
  1531                           ; Regs used in ___lwdiv: [wreg+status,2+status,0]
  1532                           
  1533  000F  01FB               	clrf	___lwdiv@quotient
  1534  0010  01FC               	clrf	___lwdiv@quotient+1
  1535  0011                     l1249:
  1536  0011  0876               	movf	___lwdiv@divisor,w
  1537  0012  0477               	iorwf	___lwdiv@divisor+1,w
  1538  0013  1903               	btfsc	3,2
  1539  0014  2816               	goto	u1441
  1540  0015  2817               	goto	u1440
  1541  0016                     u1441:
  1542  0016  284E               	goto	l1269
  1543  0017                     u1440:
  1544  0017                     l1251:
  1545  0017  01FD               	clrf	___lwdiv@counter
  1546  0018  0AFD               	incf	___lwdiv@counter,f
  1547  0019  2825               	goto	l1257
  1548  001A                     l1253:
  1549  001A  3001               	movlw	1
  1550  001B                     u1455:
  1551  001B  1003               	clrc
  1552  001C  0DF6               	rlf	___lwdiv@divisor,f
  1553  001D  0DF7               	rlf	___lwdiv@divisor+1,f
  1554  001E  3EFF               	addlw	-1
  1555  001F  1D03               	skipz
  1556  0020  281B               	goto	u1455
  1557  0021                     l1255:
  1558  0021  3001               	movlw	1
  1559  0022  00FA               	movwf	??___lwdiv
  1560  0023  087A               	movf	??___lwdiv,w
  1561  0024  07FD               	addwf	___lwdiv@counter,f
  1562  0025                     l1257:
  1563  0025  1FF7               	btfss	___lwdiv@divisor+1,7
  1564  0026  2828               	goto	u1461
  1565  0027  2829               	goto	u1460
  1566  0028                     u1461:
  1567  0028  281A               	goto	l1253
  1568  0029                     u1460:
  1569  0029                     l1259:
  1570  0029  3001               	movlw	1
  1571  002A                     u1475:
  1572  002A  1003               	clrc
  1573  002B  0DFB               	rlf	___lwdiv@quotient,f
  1574  002C  0DFC               	rlf	___lwdiv@quotient+1,f
  1575  002D  3EFF               	addlw	-1
  1576  002E  1D03               	skipz
  1577  002F  282A               	goto	u1475
  1578  0030  0877               	movf	___lwdiv@divisor+1,w
  1579  0031  0279               	subwf	___lwdiv@dividend+1,w
  1580  0032  1D03               	skipz
  1581  0033  2836               	goto	u1485
  1582  0034  0876               	movf	___lwdiv@divisor,w
  1583  0035  0278               	subwf	___lwdiv@dividend,w
  1584  0036                     u1485:
  1585  0036  1C03               	skipc
  1586  0037  2839               	goto	u1481
  1587  0038  283A               	goto	u1480
  1588  0039                     u1481:
  1589  0039  2841               	goto	l1265
  1590  003A                     u1480:
  1591  003A                     l1261:
  1592  003A  0876               	movf	___lwdiv@divisor,w
  1593  003B  02F8               	subwf	___lwdiv@dividend,f
  1594  003C  0877               	movf	___lwdiv@divisor+1,w
  1595  003D  1C03               	skipc
  1596  003E  03F9               	decf	___lwdiv@dividend+1,f
  1597  003F  02F9               	subwf	___lwdiv@dividend+1,f
  1598  0040                     l1263:
  1599  0040  147B               	bsf	___lwdiv@quotient,0
  1600  0041                     l1265:
  1601  0041  3001               	movlw	1
  1602  0042                     u1495:
  1603  0042  1003               	clrc
  1604  0043  0CF7               	rrf	___lwdiv@divisor+1,f
  1605  0044  0CF6               	rrf	___lwdiv@divisor,f
  1606  0045  3EFF               	addlw	-1
  1607  0046  1D03               	skipz
  1608  0047  2842               	goto	u1495
  1609  0048                     l1267:
  1610  0048  3001               	movlw	1
  1611  0049  02FD               	subwf	___lwdiv@counter,f
  1612  004A  1D03               	btfss	3,2
  1613  004B  284D               	goto	u1501
  1614  004C  284E               	goto	u1500
  1615  004D                     u1501:
  1616  004D  2829               	goto	l1259
  1617  004E                     u1500:
  1618  004E                     l1269:
  1619  004E  087C               	movf	___lwdiv@quotient+1,w
  1620  004F  00F7               	movwf	?___lwdiv+1
  1621  0050  087B               	movf	___lwdiv@quotient,w
  1622  0051  00F6               	movwf	?___lwdiv
  1623  0052                     l399:
  1624  0052  0008               	return
  1625  0053                     __end_of___lwdiv:
  1626                           
  1627                           	psect	text5
  1628  0EE2                     __ptext5:	
  1629 ;; *************** function ___fltol *****************
  1630 ;; Defined at:
  1631 ;;		line 43 in file "C:\Program Files\Microchip\xc8\v2.32\pic\sources\c90\common\fltol.c"
  1632 ;; Parameters:    Size  Location     Type
  1633 ;;  f1              4   21[BANK0 ] unsigned int 
  1634 ;; Auto vars:     Size  Location     Type
  1635 ;;  exp1            1   31[BANK0 ] unsigned char 
  1636 ;;  sign1           1   30[BANK0 ] unsigned char 
  1637 ;; Return value:  Size  Location     Type
  1638 ;;                  4   21[BANK0 ] long 
  1639 ;; Registers used:
  1640 ;;		wreg, status,2, status,0
  1641 ;; Tracked objects:
  1642 ;;		On entry : 0/0
  1643 ;;		On exit  : 0/0
  1644 ;;		Unchanged: 0/0
  1645 ;; Data sizes:     COMMON   BANK0   BANK1   BANK3   BANK2
  1646 ;;      Params:         0       4       0       0       0
  1647 ;;      Locals:         0       2       0       0       0
  1648 ;;      Temps:          0       5       0       0       0
  1649 ;;      Totals:         0      11       0       0       0
  1650 ;;Total ram usage:       11 bytes
  1651 ;; Hardware stack levels used: 1
  1652 ;; This function calls:
  1653 ;;		Nothing
  1654 ;; This function is called by:
  1655 ;;		_main
  1656 ;; This function uses a non-reentrant model
  1657 ;;
  1658                           
  1659                           
  1660                           ;psect for function ___fltol
  1661  0EE2                     ___fltol:
  1662  0EE2                     l1211:	
  1663                           ;incstack = 0
  1664                           ; Regs used in ___fltol: [wreg+status,2+status,0]
  1665                           
  1666  0EE2  1003               	clrc
  1667  0EE3  1283               	bcf	3,5	;RP0=0, select bank0
  1668  0EE4  1303               	bcf	3,6	;RP1=0, select bank0
  1669  0EE5  0D37               	rlf	___fltol@f1+2,w
  1670  0EE6  0D38               	rlf	___fltol@f1+3,w
  1671  0EE7  00B9               	movwf	??___fltol
  1672  0EE8  0839               	movf	??___fltol,w
  1673  0EE9  00BF               	movwf	___fltol@exp1
  1674  0EEA  083F               	movf	___fltol@exp1,w
  1675  0EEB  1D03               	btfss	3,2
  1676  0EEC  2EEE               	goto	u1341
  1677  0EED  2EEF               	goto	u1340
  1678  0EEE                     u1341:
  1679  0EEE  2EF8               	goto	l1217
  1680  0EEF                     u1340:
  1681  0EEF                     l1213:
  1682  0EEF  3000               	movlw	0
  1683  0EF0  00B8               	movwf	?___fltol+3
  1684  0EF1  3000               	movlw	0
  1685  0EF2  00B7               	movwf	?___fltol+2
  1686  0EF3  3000               	movlw	0
  1687  0EF4  00B6               	movwf	?___fltol+1
  1688  0EF5  3000               	movlw	0
  1689  0EF6  00B5               	movwf	?___fltol
  1690  0EF7  2F5D               	goto	l313
  1691  0EF8                     l1217:
  1692  0EF8  0835               	movf	___fltol@f1,w
  1693  0EF9  00B9               	movwf	??___fltol
  1694  0EFA  0836               	movf	___fltol@f1+1,w
  1695  0EFB  00BA               	movwf	??___fltol+1
  1696  0EFC  0837               	movf	___fltol@f1+2,w
  1697  0EFD  00BB               	movwf	??___fltol+2
  1698  0EFE  0838               	movf	___fltol@f1+3,w
  1699  0EFF  00BC               	movwf	??___fltol+3
  1700  0F00  301F               	movlw	31
  1701  0F01                     u1355:
  1702  0F01  1003               	clrc
  1703  0F02  0CBC               	rrf	??___fltol+3,f
  1704  0F03  0CBB               	rrf	??___fltol+2,f
  1705  0F04  0CBA               	rrf	??___fltol+1,f
  1706  0F05  0CB9               	rrf	??___fltol,f
  1707  0F06                     u1350:
  1708  0F06  3EFF               	addlw	-1
  1709  0F07  1D03               	skipz
  1710  0F08  2F01               	goto	u1355
  1711  0F09  0839               	movf	??___fltol,w
  1712  0F0A  00BD               	movwf	??___fltol+4
  1713  0F0B  083D               	movf	??___fltol+4,w
  1714  0F0C  00BE               	movwf	___fltol@sign1
  1715  0F0D                     l1219:
  1716  0F0D  17B7               	bsf	___fltol@f1+2,7
  1717  0F0E                     l1221:
  1718  0F0E  30FF               	movlw	255
  1719  0F0F  05B5               	andwf	___fltol@f1,f
  1720  0F10  30FF               	movlw	255
  1721  0F11  05B6               	andwf	___fltol@f1+1,f
  1722  0F12  30FF               	movlw	255
  1723  0F13  05B7               	andwf	___fltol@f1+2,f
  1724  0F14  3000               	movlw	0
  1725  0F15  05B8               	andwf	___fltol@f1+3,f
  1726  0F16                     l1223:
  1727  0F16  3096               	movlw	150
  1728  0F17  02BF               	subwf	___fltol@exp1,f
  1729  0F18                     l1225:
  1730  0F18  1FBF               	btfss	___fltol@exp1,7
  1731  0F19  2F1B               	goto	u1361
  1732  0F1A  2F1C               	goto	u1360
  1733  0F1B                     u1361:
  1734  0F1B  2F36               	goto	l1235
  1735  0F1C                     u1360:
  1736  0F1C                     l1227:
  1737  0F1C  083F               	movf	___fltol@exp1,w
  1738  0F1D  3A80               	xorlw	128
  1739  0F1E  3E97               	addlw	151
  1740  0F1F  1803               	skipnc
  1741  0F20  2F22               	goto	u1371
  1742  0F21  2F23               	goto	u1370
  1743  0F22                     u1371:
  1744  0F22  2F24               	goto	l1233
  1745  0F23                     u1370:
  1746  0F23  2EEF               	goto	l1213
  1747  0F24                     l1233:
  1748  0F24  3001               	movlw	1
  1749  0F25                     u1385:
  1750  0F25  1003               	clrc
  1751  0F26  0CB8               	rrf	___fltol@f1+3,f
  1752  0F27  0CB7               	rrf	___fltol@f1+2,f
  1753  0F28  0CB6               	rrf	___fltol@f1+1,f
  1754  0F29  0CB5               	rrf	___fltol@f1,f
  1755  0F2A  3EFF               	addlw	-1
  1756  0F2B  1D03               	skipz
  1757  0F2C  2F25               	goto	u1385
  1758  0F2D  3001               	movlw	1
  1759  0F2E  00B9               	movwf	??___fltol
  1760  0F2F  0839               	movf	??___fltol,w
  1761  0F30  07BF               	addwf	___fltol@exp1,f
  1762  0F31  1D03               	btfss	3,2
  1763  0F32  2F34               	goto	u1391
  1764  0F33  2F35               	goto	u1390
  1765  0F34                     u1391:
  1766  0F34  2F24               	goto	l1233
  1767  0F35                     u1390:
  1768  0F35  2F4D               	goto	l1243
  1769  0F36                     l1235:
  1770  0F36  3020               	movlw	32
  1771  0F37  023F               	subwf	___fltol@exp1,w
  1772  0F38  1C03               	skipc
  1773  0F39  2F3B               	goto	u1401
  1774  0F3A  2F3C               	goto	u1400
  1775  0F3B                     u1401:
  1776  0F3B  2F48               	goto	l320
  1777  0F3C                     u1400:
  1778  0F3C  2EEF               	goto	l1213
  1779  0F3D                     l1241:
  1780  0F3D  3001               	movlw	1
  1781  0F3E  00B9               	movwf	??___fltol
  1782  0F3F                     u1415:
  1783  0F3F  1003               	clrc
  1784  0F40  0DB5               	rlf	___fltol@f1,f
  1785  0F41  0DB6               	rlf	___fltol@f1+1,f
  1786  0F42  0DB7               	rlf	___fltol@f1+2,f
  1787  0F43  0DB8               	rlf	___fltol@f1+3,f
  1788  0F44  0BB9               	decfsz	??___fltol,f
  1789  0F45  2F3F               	goto	u1415
  1790  0F46  3001               	movlw	1
  1791  0F47  02BF               	subwf	___fltol@exp1,f
  1792  0F48                     l320:
  1793  0F48  083F               	movf	___fltol@exp1,w
  1794  0F49  1D03               	btfss	3,2
  1795  0F4A  2F4C               	goto	u1421
  1796  0F4B  2F4D               	goto	u1420
  1797  0F4C                     u1421:
  1798  0F4C  2F3D               	goto	l1241
  1799  0F4D                     u1420:
  1800  0F4D                     l1243:
  1801  0F4D  083E               	movf	___fltol@sign1,w
  1802  0F4E  1903               	btfsc	3,2
  1803  0F4F  2F51               	goto	u1431
  1804  0F50  2F52               	goto	u1430
  1805  0F51                     u1431:
  1806  0F51  2F5D               	goto	l323
  1807  0F52                     u1430:
  1808  0F52                     l1245:
  1809  0F52  09B5               	comf	___fltol@f1,f
  1810  0F53  09B6               	comf	___fltol@f1+1,f
  1811  0F54  09B7               	comf	___fltol@f1+2,f
  1812  0F55  09B8               	comf	___fltol@f1+3,f
  1813  0F56  0AB5               	incf	___fltol@f1,f
  1814  0F57  1903               	skipnz
  1815  0F58  0AB6               	incf	___fltol@f1+1,f
  1816  0F59  1903               	skipnz
  1817  0F5A  0AB7               	incf	___fltol@f1+2,f
  1818  0F5B  1903               	skipnz
  1819  0F5C  0AB8               	incf	___fltol@f1+3,f
  1820  0F5D                     l323:
  1821  0F5D                     l313:
  1822  0F5D  0008               	return
  1823  0F5E                     __end_of___fltol:
  1824                           
  1825                           	psect	text6
  1826  049B                     __ptext6:	
  1827 ;; *************** function ___flmul *****************
  1828 ;; Defined at:
  1829 ;;		line 8 in file "C:\Program Files\Microchip\xc8\v2.32\pic\sources\c90\common\sprcmul.c"
  1830 ;; Parameters:    Size  Location     Type
  1831 ;;  b               4    0[BANK0 ] long 
  1832 ;;  a               4    4[BANK0 ] long 
  1833 ;; Auto vars:     Size  Location     Type
  1834 ;;  prod            4   15[BANK0 ] struct .
  1835 ;;  grs             4    9[BANK0 ] unsigned long 
  1836 ;;  temp            2   19[BANK0 ] struct .
  1837 ;;  bexp            1   14[BANK0 ] unsigned char 
  1838 ;;  aexp            1   13[BANK0 ] unsigned char 
  1839 ;;  sign            1    8[BANK0 ] unsigned char 
  1840 ;; Return value:  Size  Location     Type
  1841 ;;                  4    0[BANK0 ] unsigned char 
  1842 ;; Registers used:
  1843 ;;		wreg, status,2, status,0, btemp+1, pclath, cstack
  1844 ;; Tracked objects:
  1845 ;;		On entry : 0/0
  1846 ;;		On exit  : 0/0
  1847 ;;		Unchanged: 0/0
  1848 ;; Data sizes:     COMMON   BANK0   BANK1   BANK3   BANK2
  1849 ;;      Params:         0       8       0       0       0
  1850 ;;      Locals:         0      13       0       0       0
  1851 ;;      Temps:          5       0       0       0       0
  1852 ;;      Totals:         5      21       0       0       0
  1853 ;;Total ram usage:       26 bytes
  1854 ;; Hardware stack levels used: 1
  1855 ;; Hardware stack levels required when called: 1
  1856 ;; This function calls:
  1857 ;;		__Umul8_16
  1858 ;; This function is called by:
  1859 ;;		_main
  1860 ;; This function uses a non-reentrant model
  1861 ;;
  1862                           
  1863                           
  1864                           ;psect for function ___flmul
  1865  049B                     ___flmul:
  1866  049B                     l1437:	
  1867                           ;incstack = 0
  1868                           ; Regs used in ___flmul: [wreg+status,2+status,0+btemp+1+pclath+cstack]
  1869                           
  1870  049B  1283               	bcf	3,5	;RP0=0, select bank0
  1871  049C  1303               	bcf	3,6	;RP1=0, select bank0
  1872  049D  0823               	movf	___flmul@b+3,w
  1873  049E  3980               	andlw	128
  1874  049F  00F9               	movwf	??___flmul
  1875  04A0  0879               	movf	??___flmul,w
  1876  04A1  00A8               	movwf	___flmul@sign
  1877  04A2                     l1439:
  1878  04A2  0823               	movf	___flmul@b+3,w
  1879  04A3  00F9               	movwf	??___flmul
  1880  04A4  0779               	addwf	??___flmul,w
  1881  04A5  00FA               	movwf	??___flmul+1
  1882  04A6  087A               	movf	??___flmul+1,w
  1883  04A7  00AE               	movwf	___flmul@bexp
  1884  04A8                     l1441:
  1885  04A8  1FA2               	btfss	___flmul@b+2,7
  1886  04A9  2CAB               	goto	u1861
  1887  04AA  2CAC               	goto	u1860
  1888  04AB                     u1861:
  1889  04AB  2CAD               	goto	l1445
  1890  04AC                     u1860:
  1891  04AC                     l1443:
  1892  04AC  142E               	bsf	___flmul@bexp,0
  1893  04AD                     l1445:
  1894  04AD  082E               	movf	___flmul@bexp,w
  1895  04AE  1903               	btfsc	3,2
  1896  04AF  2CB1               	goto	u1871
  1897  04B0  2CB2               	goto	u1870
  1898  04B1                     u1871:
  1899  04B1  2CC1               	goto	l1453
  1900  04B2                     u1870:
  1901  04B2                     l1447:
  1902  04B2  0A2E               	incf	___flmul@bexp,w
  1903  04B3  1D03               	btfss	3,2
  1904  04B4  2CB6               	goto	u1881
  1905  04B5  2CB7               	goto	u1880
  1906  04B6                     u1881:
  1907  04B6  2CBF               	goto	l1451
  1908  04B7                     u1880:
  1909  04B7                     l1449:
  1910  04B7  3000               	movlw	0
  1911  04B8  00A3               	movwf	___flmul@b+3
  1912  04B9  3000               	movlw	0
  1913  04BA  00A2               	movwf	___flmul@b+2
  1914  04BB  3000               	movlw	0
  1915  04BC  00A1               	movwf	___flmul@b+1
  1916  04BD  3000               	movlw	0
  1917  04BE  00A0               	movwf	___flmul@b
  1918  04BF                     l1451:
  1919  04BF  17A2               	bsf	___flmul@b+2,7
  1920  04C0  2CC9               	goto	l1455
  1921  04C1                     l1453:
  1922  04C1  3000               	movlw	0
  1923  04C2  00A3               	movwf	___flmul@b+3
  1924  04C3  3000               	movlw	0
  1925  04C4  00A2               	movwf	___flmul@b+2
  1926  04C5  3000               	movlw	0
  1927  04C6  00A1               	movwf	___flmul@b+1
  1928  04C7  3000               	movlw	0
  1929  04C8  00A0               	movwf	___flmul@b
  1930  04C9                     l1455:
  1931  04C9  0827               	movf	___flmul@a+3,w
  1932  04CA  3980               	andlw	128
  1933  04CB  00F9               	movwf	??___flmul
  1934  04CC  0879               	movf	??___flmul,w
  1935  04CD  06A8               	xorwf	___flmul@sign,f
  1936  04CE                     l1457:
  1937  04CE  0827               	movf	___flmul@a+3,w
  1938  04CF  00F9               	movwf	??___flmul
  1939  04D0  0779               	addwf	??___flmul,w
  1940  04D1  00FA               	movwf	??___flmul+1
  1941  04D2  087A               	movf	??___flmul+1,w
  1942  04D3  00AD               	movwf	___flmul@aexp
  1943  04D4                     l1459:
  1944  04D4  1FA6               	btfss	___flmul@a+2,7
  1945  04D5  2CD7               	goto	u1891
  1946  04D6  2CD8               	goto	u1890
  1947  04D7                     u1891:
  1948  04D7  2CD9               	goto	l1463
  1949  04D8                     u1890:
  1950  04D8                     l1461:
  1951  04D8  142D               	bsf	___flmul@aexp,0
  1952  04D9                     l1463:
  1953  04D9  082D               	movf	___flmul@aexp,w
  1954  04DA  1903               	btfsc	3,2
  1955  04DB  2CDD               	goto	u1901
  1956  04DC  2CDE               	goto	u1900
  1957  04DD                     u1901:
  1958  04DD  2CED               	goto	l1471
  1959  04DE                     u1900:
  1960  04DE                     l1465:
  1961  04DE  0A2D               	incf	___flmul@aexp,w
  1962  04DF  1D03               	btfss	3,2
  1963  04E0  2CE2               	goto	u1911
  1964  04E1  2CE3               	goto	u1910
  1965  04E2                     u1911:
  1966  04E2  2CEB               	goto	l1469
  1967  04E3                     u1910:
  1968  04E3                     l1467:
  1969  04E3  3000               	movlw	0
  1970  04E4  00A7               	movwf	___flmul@a+3
  1971  04E5  3000               	movlw	0
  1972  04E6  00A6               	movwf	___flmul@a+2
  1973  04E7  3000               	movlw	0
  1974  04E8  00A5               	movwf	___flmul@a+1
  1975  04E9  3000               	movlw	0
  1976  04EA  00A4               	movwf	___flmul@a
  1977  04EB                     l1469:
  1978  04EB  17A6               	bsf	___flmul@a+2,7
  1979  04EC  2CF5               	goto	l1473
  1980  04ED                     l1471:
  1981  04ED  3000               	movlw	0
  1982  04EE  00A7               	movwf	___flmul@a+3
  1983  04EF  3000               	movlw	0
  1984  04F0  00A6               	movwf	___flmul@a+2
  1985  04F1  3000               	movlw	0
  1986  04F2  00A5               	movwf	___flmul@a+1
  1987  04F3  3000               	movlw	0
  1988  04F4  00A4               	movwf	___flmul@a
  1989  04F5                     l1473:
  1990  04F5  082D               	movf	___flmul@aexp,w
  1991  04F6  1903               	btfsc	3,2
  1992  04F7  2CF9               	goto	u1921
  1993  04F8  2CFA               	goto	u1920
  1994  04F9                     u1921:
  1995  04F9  2CFF               	goto	l1477
  1996  04FA                     u1920:
  1997  04FA                     l1475:
  1998  04FA  082E               	movf	___flmul@bexp,w
  1999  04FB  1D03               	btfss	3,2
  2000  04FC  2CFE               	goto	u1931
  2001  04FD  2CFF               	goto	u1930
  2002  04FE                     u1931:
  2003  04FE  2D08               	goto	l1481
  2004  04FF                     u1930:
  2005  04FF                     l1477:
  2006  04FF  3000               	movlw	0
  2007  0500  00A3               	movwf	?___flmul+3
  2008  0501  3000               	movlw	0
  2009  0502  00A2               	movwf	?___flmul+2
  2010  0503  3000               	movlw	0
  2011  0504  00A1               	movwf	?___flmul+1
  2012  0505  3000               	movlw	0
  2013  0506  00A0               	movwf	?___flmul
  2014  0507  2FFB               	goto	l516
  2015  0508                     l1481:
  2016  0508  0820               	movf	___flmul@b,w
  2017  0509  00F9               	movwf	??___flmul
  2018  050A  0879               	movf	??___flmul,w
  2019  050B  00F0               	movwf	__Umul8_16@multiplicand
  2020  050C  0826               	movf	___flmul@a+2,w
  2021  050D  120A  158A  2681  120A  118A  	fcall	__Umul8_16
  2022  0512  0871               	movf	?__Umul8_16+1,w
  2023  0513  1283               	bcf	3,5	;RP0=0, select bank0
  2024  0514  1303               	bcf	3,6	;RP1=0, select bank0
  2025  0515  00B4               	movwf	___flmul@temp+1
  2026  0516  0870               	movf	?__Umul8_16,w
  2027  0517  00B3               	movwf	___flmul@temp
  2028  0518                     l1483:
  2029  0518  0833               	movf	___flmul@temp,w
  2030  0519  00F9               	movwf	??___flmul
  2031  051A  01FA               	clrf	??___flmul+1
  2032  051B  01FB               	clrf	??___flmul+2
  2033  051C  01FC               	clrf	??___flmul+3
  2034  051D  087C               	movf	??___flmul+3,w
  2035  051E  00AC               	movwf	___flmul@grs+3
  2036  051F  087B               	movf	??___flmul+2,w
  2037  0520  00AB               	movwf	___flmul@grs+2
  2038  0521  087A               	movf	??___flmul+1,w
  2039  0522  00AA               	movwf	___flmul@grs+1
  2040  0523  0879               	movf	??___flmul,w
  2041  0524  00A9               	movwf	___flmul@grs
  2042  0525                     l1485:
  2043  0525  0834               	movf	___flmul@temp+1,w
  2044  0526  00F9               	movwf	??___flmul
  2045  0527  01FA               	clrf	??___flmul+1
  2046  0528  01FB               	clrf	??___flmul+2
  2047  0529  01FC               	clrf	??___flmul+3
  2048  052A  087C               	movf	??___flmul+3,w
  2049  052B  00B2               	movwf	___flmul@prod+3
  2050  052C  087B               	movf	??___flmul+2,w
  2051  052D  00B1               	movwf	___flmul@prod+2
  2052  052E  087A               	movf	??___flmul+1,w
  2053  052F  00B0               	movwf	___flmul@prod+1
  2054  0530  0879               	movf	??___flmul,w
  2055  0531  00AF               	movwf	___flmul@prod
  2056  0532  0821               	movf	___flmul@b+1,w
  2057  0533  00F9               	movwf	??___flmul
  2058  0534  0879               	movf	??___flmul,w
  2059  0535  00F0               	movwf	__Umul8_16@multiplicand
  2060  0536  0825               	movf	___flmul@a+1,w
  2061  0537  120A  158A  2681  120A  118A  	fcall	__Umul8_16
  2062  053C  0871               	movf	?__Umul8_16+1,w
  2063  053D  1283               	bcf	3,5	;RP0=0, select bank0
  2064  053E  1303               	bcf	3,6	;RP1=0, select bank0
  2065  053F  00B4               	movwf	___flmul@temp+1
  2066  0540  0870               	movf	?__Umul8_16,w
  2067  0541  00B3               	movwf	___flmul@temp
  2068  0542                     l1487:
  2069  0542  0833               	movf	___flmul@temp,w
  2070  0543  00F9               	movwf	??___flmul
  2071  0544  01FA               	clrf	??___flmul+1
  2072  0545  01FB               	clrf	??___flmul+2
  2073  0546  01FC               	clrf	??___flmul+3
  2074  0547  0879               	movf	??___flmul,w
  2075  0548  07A9               	addwf	___flmul@grs,f
  2076  0549  087A               	movf	??___flmul+1,w
  2077  054A  1103               	clrz
  2078  054B  1803               	skipnc
  2079  054C  3E01               	addlw	1
  2080  054D  1903               	skipnz
  2081  054E  2D50               	goto	u1941
  2082  054F  07AA               	addwf	___flmul@grs+1,f
  2083  0550                     u1941:
  2084  0550  087B               	movf	??___flmul+2,w
  2085  0551  1103               	clrz
  2086  0552  1803               	skipnc
  2087  0553  3E01               	addlw	1
  2088  0554  1903               	skipnz
  2089  0555  2D57               	goto	u1942
  2090  0556  07AB               	addwf	___flmul@grs+2,f
  2091  0557                     u1942:
  2092  0557  087C               	movf	??___flmul+3,w
  2093  0558  1103               	clrz
  2094  0559  1803               	skipnc
  2095  055A  3E01               	addlw	1
  2096  055B  1903               	skipnz
  2097  055C  2D5E               	goto	u1943
  2098  055D  07AC               	addwf	___flmul@grs+3,f
  2099  055E                     u1943:
  2100  055E                     l1489:
  2101  055E  0834               	movf	___flmul@temp+1,w
  2102  055F  00F9               	movwf	??___flmul
  2103  0560  01FA               	clrf	??___flmul+1
  2104  0561  01FB               	clrf	??___flmul+2
  2105  0562  01FC               	clrf	??___flmul+3
  2106  0563  0879               	movf	??___flmul,w
  2107  0564  07AF               	addwf	___flmul@prod,f
  2108  0565  087A               	movf	??___flmul+1,w
  2109  0566  1103               	clrz
  2110  0567  1803               	skipnc
  2111  0568  3E01               	addlw	1
  2112  0569  1903               	skipnz
  2113  056A  2D6C               	goto	u1951
  2114  056B  07B0               	addwf	___flmul@prod+1,f
  2115  056C                     u1951:
  2116  056C  087B               	movf	??___flmul+2,w
  2117  056D  1103               	clrz
  2118  056E  1803               	skipnc
  2119  056F  3E01               	addlw	1
  2120  0570  1903               	skipnz
  2121  0571  2D73               	goto	u1952
  2122  0572  07B1               	addwf	___flmul@prod+2,f
  2123  0573                     u1952:
  2124  0573  087C               	movf	??___flmul+3,w
  2125  0574  1103               	clrz
  2126  0575  1803               	skipnc
  2127  0576  3E01               	addlw	1
  2128  0577  1903               	skipnz
  2129  0578  2D7A               	goto	u1953
  2130  0579  07B2               	addwf	___flmul@prod+3,f
  2131  057A                     u1953:
  2132  057A  0822               	movf	___flmul@b+2,w
  2133  057B  00F9               	movwf	??___flmul
  2134  057C  0879               	movf	??___flmul,w
  2135  057D  00F0               	movwf	__Umul8_16@multiplicand
  2136  057E  0824               	movf	___flmul@a,w
  2137  057F  120A  158A  2681  120A  118A  	fcall	__Umul8_16
  2138  0584  0871               	movf	?__Umul8_16+1,w
  2139  0585  1283               	bcf	3,5	;RP0=0, select bank0
  2140  0586  1303               	bcf	3,6	;RP1=0, select bank0
  2141  0587  00B4               	movwf	___flmul@temp+1
  2142  0588  0870               	movf	?__Umul8_16,w
  2143  0589  00B3               	movwf	___flmul@temp
  2144  058A                     l1491:
  2145  058A  0833               	movf	___flmul@temp,w
  2146  058B  00F9               	movwf	??___flmul
  2147  058C  01FA               	clrf	??___flmul+1
  2148  058D  01FB               	clrf	??___flmul+2
  2149  058E  01FC               	clrf	??___flmul+3
  2150  058F  0879               	movf	??___flmul,w
  2151  0590  07A9               	addwf	___flmul@grs,f
  2152  0591  087A               	movf	??___flmul+1,w
  2153  0592  1103               	clrz
  2154  0593  1803               	skipnc
  2155  0594  3E01               	addlw	1
  2156  0595  1903               	skipnz
  2157  0596  2D98               	goto	u1961
  2158  0597  07AA               	addwf	___flmul@grs+1,f
  2159  0598                     u1961:
  2160  0598  087B               	movf	??___flmul+2,w
  2161  0599  1103               	clrz
  2162  059A  1803               	skipnc
  2163  059B  3E01               	addlw	1
  2164  059C  1903               	skipnz
  2165  059D  2D9F               	goto	u1962
  2166  059E  07AB               	addwf	___flmul@grs+2,f
  2167  059F                     u1962:
  2168  059F  087C               	movf	??___flmul+3,w
  2169  05A0  1103               	clrz
  2170  05A1  1803               	skipnc
  2171  05A2  3E01               	addlw	1
  2172  05A3  1903               	skipnz
  2173  05A4  2DA6               	goto	u1963
  2174  05A5  07AC               	addwf	___flmul@grs+3,f
  2175  05A6                     u1963:
  2176  05A6                     l1493:
  2177  05A6  0834               	movf	___flmul@temp+1,w
  2178  05A7  00F9               	movwf	??___flmul
  2179  05A8  01FA               	clrf	??___flmul+1
  2180  05A9  01FB               	clrf	??___flmul+2
  2181  05AA  01FC               	clrf	??___flmul+3
  2182  05AB  0879               	movf	??___flmul,w
  2183  05AC  07AF               	addwf	___flmul@prod,f
  2184  05AD  087A               	movf	??___flmul+1,w
  2185  05AE  1103               	clrz
  2186  05AF  1803               	skipnc
  2187  05B0  3E01               	addlw	1
  2188  05B1  1903               	skipnz
  2189  05B2  2DB4               	goto	u1971
  2190  05B3  07B0               	addwf	___flmul@prod+1,f
  2191  05B4                     u1971:
  2192  05B4  087B               	movf	??___flmul+2,w
  2193  05B5  1103               	clrz
  2194  05B6  1803               	skipnc
  2195  05B7  3E01               	addlw	1
  2196  05B8  1903               	skipnz
  2197  05B9  2DBB               	goto	u1972
  2198  05BA  07B1               	addwf	___flmul@prod+2,f
  2199  05BB                     u1972:
  2200  05BB  087C               	movf	??___flmul+3,w
  2201  05BC  1103               	clrz
  2202  05BD  1803               	skipnc
  2203  05BE  3E01               	addlw	1
  2204  05BF  1903               	skipnz
  2205  05C0  2DC2               	goto	u1973
  2206  05C1  07B2               	addwf	___flmul@prod+3,f
  2207  05C2                     u1973:
  2208  05C2                     l1495:
  2209  05C2  3008               	movlw	8
  2210  05C3  00F9               	movwf	??___flmul
  2211  05C4                     u1985:
  2212  05C4  1003               	clrc
  2213  05C5  0DA9               	rlf	___flmul@grs,f
  2214  05C6  0DAA               	rlf	___flmul@grs+1,f
  2215  05C7  0DAB               	rlf	___flmul@grs+2,f
  2216  05C8  0DAC               	rlf	___flmul@grs+3,f
  2217  05C9  0BF9               	decfsz	??___flmul,f
  2218  05CA  2DC4               	goto	u1985
  2219  05CB                     l1497:
  2220  05CB  0821               	movf	___flmul@b+1,w
  2221  05CC  00F9               	movwf	??___flmul
  2222  05CD  0879               	movf	??___flmul,w
  2223  05CE  00F0               	movwf	__Umul8_16@multiplicand
  2224  05CF  0824               	movf	___flmul@a,w
  2225  05D0  120A  158A  2681  120A  118A  	fcall	__Umul8_16
  2226  05D5  0871               	movf	?__Umul8_16+1,w
  2227  05D6  1283               	bcf	3,5	;RP0=0, select bank0
  2228  05D7  1303               	bcf	3,6	;RP1=0, select bank0
  2229  05D8  00B4               	movwf	___flmul@temp+1
  2230  05D9  0870               	movf	?__Umul8_16,w
  2231  05DA  00B3               	movwf	___flmul@temp
  2232  05DB                     l1499:
  2233  05DB  0833               	movf	___flmul@temp,w
  2234  05DC  00F9               	movwf	??___flmul
  2235  05DD  0834               	movf	___flmul@temp+1,w
  2236  05DE  00FA               	movwf	??___flmul+1
  2237  05DF  01FB               	clrf	??___flmul+2
  2238  05E0  01FC               	clrf	??___flmul+3
  2239  05E1  0879               	movf	??___flmul,w
  2240  05E2  07A9               	addwf	___flmul@grs,f
  2241  05E3  087A               	movf	??___flmul+1,w
  2242  05E4  1103               	clrz
  2243  05E5  1803               	skipnc
  2244  05E6  3E01               	addlw	1
  2245  05E7  1903               	skipnz
  2246  05E8  2DEA               	goto	u1991
  2247  05E9  07AA               	addwf	___flmul@grs+1,f
  2248  05EA                     u1991:
  2249  05EA  087B               	movf	??___flmul+2,w
  2250  05EB  1103               	clrz
  2251  05EC  1803               	skipnc
  2252  05ED  3E01               	addlw	1
  2253  05EE  1903               	skipnz
  2254  05EF  2DF1               	goto	u1992
  2255  05F0  07AB               	addwf	___flmul@grs+2,f
  2256  05F1                     u1992:
  2257  05F1  087C               	movf	??___flmul+3,w
  2258  05F2  1103               	clrz
  2259  05F3  1803               	skipnc
  2260  05F4  3E01               	addlw	1
  2261  05F5  1903               	skipnz
  2262  05F6  2DF8               	goto	u1993
  2263  05F7  07AC               	addwf	___flmul@grs+3,f
  2264  05F8                     u1993:
  2265  05F8                     l1501:
  2266  05F8  0820               	movf	___flmul@b,w
  2267  05F9  00F9               	movwf	??___flmul
  2268  05FA  0879               	movf	??___flmul,w
  2269  05FB  00F0               	movwf	__Umul8_16@multiplicand
  2270  05FC  0825               	movf	___flmul@a+1,w
  2271  05FD  120A  158A  2681  120A  118A  	fcall	__Umul8_16
  2272  0602  0871               	movf	?__Umul8_16+1,w
  2273  0603  1283               	bcf	3,5	;RP0=0, select bank0
  2274  0604  1303               	bcf	3,6	;RP1=0, select bank0
  2275  0605  00B4               	movwf	___flmul@temp+1
  2276  0606  0870               	movf	?__Umul8_16,w
  2277  0607  00B3               	movwf	___flmul@temp
  2278  0608                     l1503:
  2279  0608  0833               	movf	___flmul@temp,w
  2280  0609  00F9               	movwf	??___flmul
  2281  060A  0834               	movf	___flmul@temp+1,w
  2282  060B  00FA               	movwf	??___flmul+1
  2283  060C  01FB               	clrf	??___flmul+2
  2284  060D  01FC               	clrf	??___flmul+3
  2285  060E  0879               	movf	??___flmul,w
  2286  060F  07A9               	addwf	___flmul@grs,f
  2287  0610  087A               	movf	??___flmul+1,w
  2288  0611  1103               	clrz
  2289  0612  1803               	skipnc
  2290  0613  3E01               	addlw	1
  2291  0614  1903               	skipnz
  2292  0615  2E17               	goto	u2001
  2293  0616  07AA               	addwf	___flmul@grs+1,f
  2294  0617                     u2001:
  2295  0617  087B               	movf	??___flmul+2,w
  2296  0618  1103               	clrz
  2297  0619  1803               	skipnc
  2298  061A  3E01               	addlw	1
  2299  061B  1903               	skipnz
  2300  061C  2E1E               	goto	u2002
  2301  061D  07AB               	addwf	___flmul@grs+2,f
  2302  061E                     u2002:
  2303  061E  087C               	movf	??___flmul+3,w
  2304  061F  1103               	clrz
  2305  0620  1803               	skipnc
  2306  0621  3E01               	addlw	1
  2307  0622  1903               	skipnz
  2308  0623  2E25               	goto	u2003
  2309  0624  07AC               	addwf	___flmul@grs+3,f
  2310  0625                     u2003:
  2311  0625                     l1505:
  2312  0625  3008               	movlw	8
  2313  0626  00F9               	movwf	??___flmul
  2314  0627                     u2015:
  2315  0627  1003               	clrc
  2316  0628  0DA9               	rlf	___flmul@grs,f
  2317  0629  0DAA               	rlf	___flmul@grs+1,f
  2318  062A  0DAB               	rlf	___flmul@grs+2,f
  2319  062B  0DAC               	rlf	___flmul@grs+3,f
  2320  062C  0BF9               	decfsz	??___flmul,f
  2321  062D  2E27               	goto	u2015
  2322  062E  0820               	movf	___flmul@b,w
  2323  062F  00F9               	movwf	??___flmul
  2324  0630  0879               	movf	??___flmul,w
  2325  0631  00F0               	movwf	__Umul8_16@multiplicand
  2326  0632  0824               	movf	___flmul@a,w
  2327  0633  120A  158A  2681  120A  118A  	fcall	__Umul8_16
  2328  0638  0871               	movf	?__Umul8_16+1,w
  2329  0639  1283               	bcf	3,5	;RP0=0, select bank0
  2330  063A  1303               	bcf	3,6	;RP1=0, select bank0
  2331  063B  00B4               	movwf	___flmul@temp+1
  2332  063C  0870               	movf	?__Umul8_16,w
  2333  063D  00B3               	movwf	___flmul@temp
  2334  063E                     l1507:
  2335  063E  0833               	movf	___flmul@temp,w
  2336  063F  00F9               	movwf	??___flmul
  2337  0640  0834               	movf	___flmul@temp+1,w
  2338  0641  00FA               	movwf	??___flmul+1
  2339  0642  01FB               	clrf	??___flmul+2
  2340  0643  01FC               	clrf	??___flmul+3
  2341  0644  0879               	movf	??___flmul,w
  2342  0645  07A9               	addwf	___flmul@grs,f
  2343  0646  087A               	movf	??___flmul+1,w
  2344  0647  1103               	clrz
  2345  0648  1803               	skipnc
  2346  0649  3E01               	addlw	1
  2347  064A  1903               	skipnz
  2348  064B  2E4D               	goto	u2021
  2349  064C  07AA               	addwf	___flmul@grs+1,f
  2350  064D                     u2021:
  2351  064D  087B               	movf	??___flmul+2,w
  2352  064E  1103               	clrz
  2353  064F  1803               	skipnc
  2354  0650  3E01               	addlw	1
  2355  0651  1903               	skipnz
  2356  0652  2E54               	goto	u2022
  2357  0653  07AB               	addwf	___flmul@grs+2,f
  2358  0654                     u2022:
  2359  0654  087C               	movf	??___flmul+3,w
  2360  0655  1103               	clrz
  2361  0656  1803               	skipnc
  2362  0657  3E01               	addlw	1
  2363  0658  1903               	skipnz
  2364  0659  2E5B               	goto	u2023
  2365  065A  07AC               	addwf	___flmul@grs+3,f
  2366  065B                     u2023:
  2367  065B                     l1509:
  2368  065B  0821               	movf	___flmul@b+1,w
  2369  065C  00F9               	movwf	??___flmul
  2370  065D  0879               	movf	??___flmul,w
  2371  065E  00F0               	movwf	__Umul8_16@multiplicand
  2372  065F  0826               	movf	___flmul@a+2,w
  2373  0660  120A  158A  2681  120A  118A  	fcall	__Umul8_16
  2374  0665  0871               	movf	?__Umul8_16+1,w
  2375  0666  1283               	bcf	3,5	;RP0=0, select bank0
  2376  0667  1303               	bcf	3,6	;RP1=0, select bank0
  2377  0668  00B4               	movwf	___flmul@temp+1
  2378  0669  0870               	movf	?__Umul8_16,w
  2379  066A  00B3               	movwf	___flmul@temp
  2380  066B  0833               	movf	___flmul@temp,w
  2381  066C  00F9               	movwf	??___flmul
  2382  066D  0834               	movf	___flmul@temp+1,w
  2383  066E  00FA               	movwf	??___flmul+1
  2384  066F  01FB               	clrf	??___flmul+2
  2385  0670  01FC               	clrf	??___flmul+3
  2386  0671  0879               	movf	??___flmul,w
  2387  0672  07AF               	addwf	___flmul@prod,f
  2388  0673  087A               	movf	??___flmul+1,w
  2389  0674  1103               	clrz
  2390  0675  1803               	skipnc
  2391  0676  3E01               	addlw	1
  2392  0677  1903               	skipnz
  2393  0678  2E7A               	goto	u2031
  2394  0679  07B0               	addwf	___flmul@prod+1,f
  2395  067A                     u2031:
  2396  067A  087B               	movf	??___flmul+2,w
  2397  067B  1103               	clrz
  2398  067C  1803               	skipnc
  2399  067D  3E01               	addlw	1
  2400  067E  1903               	skipnz
  2401  067F  2E81               	goto	u2032
  2402  0680  07B1               	addwf	___flmul@prod+2,f
  2403  0681                     u2032:
  2404  0681  087C               	movf	??___flmul+3,w
  2405  0682  1103               	clrz
  2406  0683  1803               	skipnc
  2407  0684  3E01               	addlw	1
  2408  0685  1903               	skipnz
  2409  0686  2E88               	goto	u2033
  2410  0687  07B2               	addwf	___flmul@prod+3,f
  2411  0688                     u2033:
  2412  0688                     l1511:
  2413  0688  0822               	movf	___flmul@b+2,w
  2414  0689  00F9               	movwf	??___flmul
  2415  068A  0879               	movf	??___flmul,w
  2416  068B  00F0               	movwf	__Umul8_16@multiplicand
  2417  068C  0825               	movf	___flmul@a+1,w
  2418  068D  120A  158A  2681  120A  118A  	fcall	__Umul8_16
  2419  0692  0871               	movf	?__Umul8_16+1,w
  2420  0693  1283               	bcf	3,5	;RP0=0, select bank0
  2421  0694  1303               	bcf	3,6	;RP1=0, select bank0
  2422  0695  00B4               	movwf	___flmul@temp+1
  2423  0696  0870               	movf	?__Umul8_16,w
  2424  0697  00B3               	movwf	___flmul@temp
  2425  0698                     l1513:
  2426  0698  0833               	movf	___flmul@temp,w
  2427  0699  00F9               	movwf	??___flmul
  2428  069A  0834               	movf	___flmul@temp+1,w
  2429  069B  00FA               	movwf	??___flmul+1
  2430  069C  01FB               	clrf	??___flmul+2
  2431  069D  01FC               	clrf	??___flmul+3
  2432  069E  0879               	movf	??___flmul,w
  2433  069F  07AF               	addwf	___flmul@prod,f
  2434  06A0  087A               	movf	??___flmul+1,w
  2435  06A1  1103               	clrz
  2436  06A2  1803               	skipnc
  2437  06A3  3E01               	addlw	1
  2438  06A4  1903               	skipnz
  2439  06A5  2EA7               	goto	u2041
  2440  06A6  07B0               	addwf	___flmul@prod+1,f
  2441  06A7                     u2041:
  2442  06A7  087B               	movf	??___flmul+2,w
  2443  06A8  1103               	clrz
  2444  06A9  1803               	skipnc
  2445  06AA  3E01               	addlw	1
  2446  06AB  1903               	skipnz
  2447  06AC  2EAE               	goto	u2042
  2448  06AD  07B1               	addwf	___flmul@prod+2,f
  2449  06AE                     u2042:
  2450  06AE  087C               	movf	??___flmul+3,w
  2451  06AF  1103               	clrz
  2452  06B0  1803               	skipnc
  2453  06B1  3E01               	addlw	1
  2454  06B2  1903               	skipnz
  2455  06B3  2EB5               	goto	u2043
  2456  06B4  07B2               	addwf	___flmul@prod+3,f
  2457  06B5                     u2043:
  2458  06B5  0822               	movf	___flmul@b+2,w
  2459  06B6  00F9               	movwf	??___flmul
  2460  06B7  0879               	movf	??___flmul,w
  2461  06B8  00F0               	movwf	__Umul8_16@multiplicand
  2462  06B9  0826               	movf	___flmul@a+2,w
  2463  06BA  120A  158A  2681  120A  118A  	fcall	__Umul8_16
  2464  06BF  0871               	movf	?__Umul8_16+1,w
  2465  06C0  1283               	bcf	3,5	;RP0=0, select bank0
  2466  06C1  1303               	bcf	3,6	;RP1=0, select bank0
  2467  06C2  00B4               	movwf	___flmul@temp+1
  2468  06C3  0870               	movf	?__Umul8_16,w
  2469  06C4  00B3               	movwf	___flmul@temp
  2470  06C5                     l1515:
  2471  06C5  0833               	movf	___flmul@temp,w
  2472  06C6  00F9               	movwf	??___flmul
  2473  06C7  0834               	movf	___flmul@temp+1,w
  2474  06C8  00FA               	movwf	??___flmul+1
  2475  06C9  01FB               	clrf	??___flmul+2
  2476  06CA  01FC               	clrf	??___flmul+3
  2477  06CB  3008               	movlw	8
  2478  06CC                     u2055:
  2479  06CC  1003               	clrc
  2480  06CD  0DF9               	rlf	??___flmul,f
  2481  06CE  0DFA               	rlf	??___flmul+1,f
  2482  06CF  0DFB               	rlf	??___flmul+2,f
  2483  06D0  0DFC               	rlf	??___flmul+3,f
  2484  06D1                     u2050:
  2485  06D1  3EFF               	addlw	-1
  2486  06D2  1D03               	skipz
  2487  06D3  2ECC               	goto	u2055
  2488  06D4  0879               	movf	??___flmul,w
  2489  06D5  07AF               	addwf	___flmul@prod,f
  2490  06D6  087A               	movf	??___flmul+1,w
  2491  06D7  1103               	clrz
  2492  06D8  1803               	skipnc
  2493  06D9  3E01               	addlw	1
  2494  06DA  1903               	skipnz
  2495  06DB  2EDD               	goto	u2061
  2496  06DC  07B0               	addwf	___flmul@prod+1,f
  2497  06DD                     u2061:
  2498  06DD  087B               	movf	??___flmul+2,w
  2499  06DE  1103               	clrz
  2500  06DF  1803               	skipnc
  2501  06E0  3E01               	addlw	1
  2502  06E1  1903               	skipnz
  2503  06E2  2EE4               	goto	u2062
  2504  06E3  07B1               	addwf	___flmul@prod+2,f
  2505  06E4                     u2062:
  2506  06E4  087C               	movf	??___flmul+3,w
  2507  06E5  1103               	clrz
  2508  06E6  1803               	skipnc
  2509  06E7  3E01               	addlw	1
  2510  06E8  1903               	skipnz
  2511  06E9  2EEB               	goto	u2063
  2512  06EA  07B2               	addwf	___flmul@prod+3,f
  2513  06EB                     u2063:
  2514  06EB                     l1517:
  2515  06EB  0829               	movf	___flmul@grs,w
  2516  06EC  00F9               	movwf	??___flmul
  2517  06ED  082A               	movf	___flmul@grs+1,w
  2518  06EE  00FA               	movwf	??___flmul+1
  2519  06EF  082B               	movf	___flmul@grs+2,w
  2520  06F0  00FB               	movwf	??___flmul+2
  2521  06F1  082C               	movf	___flmul@grs+3,w
  2522  06F2  00FC               	movwf	??___flmul+3
  2523  06F3  3018               	movlw	24
  2524  06F4                     u2075:
  2525  06F4  1003               	clrc
  2526  06F5  0CFC               	rrf	??___flmul+3,f
  2527  06F6  0CFB               	rrf	??___flmul+2,f
  2528  06F7  0CFA               	rrf	??___flmul+1,f
  2529  06F8  0CF9               	rrf	??___flmul,f
  2530  06F9                     u2070:
  2531  06F9  3EFF               	addlw	-1
  2532  06FA  1D03               	skipz
  2533  06FB  2EF4               	goto	u2075
  2534  06FC  0879               	movf	??___flmul,w
  2535  06FD  07AF               	addwf	___flmul@prod,f
  2536  06FE  087A               	movf	??___flmul+1,w
  2537  06FF  1103               	clrz
  2538  0700  1803               	skipnc
  2539  0701  3E01               	addlw	1
  2540  0702  1903               	skipnz
  2541  0703  2F05               	goto	u2081
  2542  0704  07B0               	addwf	___flmul@prod+1,f
  2543  0705                     u2081:
  2544  0705  087B               	movf	??___flmul+2,w
  2545  0706  1103               	clrz
  2546  0707  1803               	skipnc
  2547  0708  3E01               	addlw	1
  2548  0709  1903               	skipnz
  2549  070A  2F0C               	goto	u2082
  2550  070B  07B1               	addwf	___flmul@prod+2,f
  2551  070C                     u2082:
  2552  070C  087C               	movf	??___flmul+3,w
  2553  070D  1103               	clrz
  2554  070E  1803               	skipnc
  2555  070F  3E01               	addlw	1
  2556  0710  1903               	skipnz
  2557  0711  2F13               	goto	u2083
  2558  0712  07B2               	addwf	___flmul@prod+3,f
  2559  0713                     u2083:
  2560  0713                     l1519:
  2561  0713  3008               	movlw	8
  2562  0714  00F9               	movwf	??___flmul
  2563  0715                     u2095:
  2564  0715  1003               	clrc
  2565  0716  0DA9               	rlf	___flmul@grs,f
  2566  0717  0DAA               	rlf	___flmul@grs+1,f
  2567  0718  0DAB               	rlf	___flmul@grs+2,f
  2568  0719  0DAC               	rlf	___flmul@grs+3,f
  2569  071A  0BF9               	decfsz	??___flmul,f
  2570  071B  2F15               	goto	u2095
  2571  071C                     l1521:
  2572  071C  082E               	movf	___flmul@bexp,w
  2573  071D  072D               	addwf	___flmul@aexp,w
  2574  071E  00F9               	movwf	??___flmul
  2575  071F  01FA               	clrf	??___flmul+1
  2576  0720  0DFA               	rlf	??___flmul+1,f
  2577  0721  0879               	movf	??___flmul,w
  2578  0722  3E82               	addlw	130
  2579  0723  00B3               	movwf	___flmul@temp
  2580  0724  087A               	movf	??___flmul+1,w
  2581  0725  1803               	skipnc
  2582  0726  3E01               	addlw	1
  2583  0727  3EFF               	addlw	255
  2584  0728  00B4               	movwf	___flmul@temp+1
  2585  0729  2F47               	goto	l1533
  2586  072A                     l1523:
  2587  072A  3001               	movlw	1
  2588  072B  00F9               	movwf	??___flmul
  2589  072C                     u2105:
  2590  072C  1003               	clrc
  2591  072D  0DAF               	rlf	___flmul@prod,f
  2592  072E  0DB0               	rlf	___flmul@prod+1,f
  2593  072F  0DB1               	rlf	___flmul@prod+2,f
  2594  0730  0DB2               	rlf	___flmul@prod+3,f
  2595  0731  0BF9               	decfsz	??___flmul,f
  2596  0732  2F2C               	goto	u2105
  2597  0733                     l1525:
  2598  0733  1FAC               	btfss	___flmul@grs+3,7
  2599  0734  2F36               	goto	u2111
  2600  0735  2F37               	goto	u2110
  2601  0736                     u2111:
  2602  0736  2F38               	goto	l1529
  2603  0737                     u2110:
  2604  0737                     l1527:
  2605  0737  142F               	bsf	___flmul@prod,0
  2606  0738                     l1529:
  2607  0738  3001               	movlw	1
  2608  0739  00F9               	movwf	??___flmul
  2609  073A                     u2125:
  2610  073A  1003               	clrc
  2611  073B  0DA9               	rlf	___flmul@grs,f
  2612  073C  0DAA               	rlf	___flmul@grs+1,f
  2613  073D  0DAB               	rlf	___flmul@grs+2,f
  2614  073E  0DAC               	rlf	___flmul@grs+3,f
  2615  073F  0BF9               	decfsz	??___flmul,f
  2616  0740  2F3A               	goto	u2125
  2617  0741                     l1531:
  2618  0741  30FF               	movlw	255
  2619  0742  07B3               	addwf	___flmul@temp,f
  2620  0743  1803               	skipnc
  2621  0744  0AB4               	incf	___flmul@temp+1,f
  2622  0745  30FF               	movlw	255
  2623  0746  07B4               	addwf	___flmul@temp+1,f
  2624  0747                     l1533:
  2625  0747  1FB1               	btfss	___flmul@prod+2,7
  2626  0748  2F4A               	goto	u2131
  2627  0749  2F4B               	goto	u2130
  2628  074A                     u2131:
  2629  074A  2F2A               	goto	l1523
  2630  074B                     u2130:
  2631  074B                     l1535:
  2632  074B  01AD               	clrf	___flmul@aexp
  2633  074C                     l1537:
  2634  074C  1FAC               	btfss	___flmul@grs+3,7
  2635  074D  2F4F               	goto	u2141
  2636  074E  2F50               	goto	u2140
  2637  074F                     u2141:
  2638  074F  2F6C               	goto	l1545
  2639  0750                     u2140:
  2640  0750                     l1539:
  2641  0750  30FF               	movlw	255
  2642  0751  0529               	andwf	___flmul@grs,w
  2643  0752  00F9               	movwf	??___flmul
  2644  0753  30FF               	movlw	255
  2645  0754  052A               	andwf	___flmul@grs+1,w
  2646  0755  00FA               	movwf	??___flmul+1
  2647  0756  30FF               	movlw	255
  2648  0757  052B               	andwf	___flmul@grs+2,w
  2649  0758  00FB               	movwf	??___flmul+2
  2650  0759  307F               	movlw	127
  2651  075A  052C               	andwf	___flmul@grs+3,w
  2652  075B  00FC               	movwf	??___flmul+3
  2653  075C  087C               	movf	??___flmul+3,w
  2654  075D  047B               	iorwf	??___flmul+2,w
  2655  075E  047A               	iorwf	??___flmul+1,w
  2656  075F  0479               	iorwf	??___flmul,w
  2657  0760  1903               	skipnz
  2658  0761  2F63               	goto	u2151
  2659  0762  2F64               	goto	u2150
  2660  0763                     u2151:
  2661  0763  2F67               	goto	l522
  2662  0764                     u2150:
  2663  0764                     l1541:
  2664  0764  01AD               	clrf	___flmul@aexp
  2665  0765  0AAD               	incf	___flmul@aexp,f
  2666  0766  2F6C               	goto	l1545
  2667  0767                     l522:
  2668  0767  1C2F               	btfss	___flmul@prod,0
  2669  0768  2F6A               	goto	u2161
  2670  0769  2F6B               	goto	u2160
  2671  076A                     u2161:
  2672  076A  2F6C               	goto	l1545
  2673  076B                     u2160:
  2674  076B  2F64               	goto	l1541
  2675  076C                     l1545:
  2676  076C  082D               	movf	___flmul@aexp,w
  2677  076D  1903               	btfsc	3,2
  2678  076E  2F70               	goto	u2171
  2679  076F  2F71               	goto	u2170
  2680  0770                     u2171:
  2681  0770  2FA2               	goto	l1555
  2682  0771                     u2170:
  2683  0771                     l1547:
  2684  0771  3001               	movlw	1
  2685  0772  07AF               	addwf	___flmul@prod,f
  2686  0773  3000               	movlw	0
  2687  0774  1803               	skipnc
  2688  0775  3001               	movlw	1
  2689  0776  07B0               	addwf	___flmul@prod+1,f
  2690  0777  3000               	movlw	0
  2691  0778  1803               	skipnc
  2692  0779  3001               	movlw	1
  2693  077A  07B1               	addwf	___flmul@prod+2,f
  2694  077B  3000               	movlw	0
  2695  077C  1803               	skipnc
  2696  077D  3001               	movlw	1
  2697  077E  07B2               	addwf	___flmul@prod+3,f
  2698  077F                     l1549:
  2699  077F  1C32               	btfss	___flmul@prod+3,0
  2700  0780  2F82               	goto	u2181
  2701  0781  2F83               	goto	u2180
  2702  0782                     u2181:
  2703  0782  2FA2               	goto	l1555
  2704  0783                     u2180:
  2705  0783                     l1551:
  2706  0783  082F               	movf	___flmul@prod,w
  2707  0784  00F9               	movwf	??___flmul
  2708  0785  0830               	movf	___flmul@prod+1,w
  2709  0786  00FA               	movwf	??___flmul+1
  2710  0787  0831               	movf	___flmul@prod+2,w
  2711  0788  00FB               	movwf	??___flmul+2
  2712  0789  0832               	movf	___flmul@prod+3,w
  2713  078A  00FC               	movwf	??___flmul+3
  2714  078B  3001               	movlw	1
  2715  078C  00FD               	movwf	??___flmul+4
  2716  078D                     u2195:
  2717  078D  0D7C               	rlf	??___flmul+3,w
  2718  078E  0CFC               	rrf	??___flmul+3,f
  2719  078F  0CFB               	rrf	??___flmul+2,f
  2720  0790  0CFA               	rrf	??___flmul+1,f
  2721  0791  0CF9               	rrf	??___flmul,f
  2722  0792                     u2190:
  2723  0792  0BFD               	decfsz	??___flmul+4,f
  2724  0793  2F8D               	goto	u2195
  2725  0794  087C               	movf	??___flmul+3,w
  2726  0795  00B2               	movwf	___flmul@prod+3
  2727  0796  087B               	movf	??___flmul+2,w
  2728  0797  00B1               	movwf	___flmul@prod+2
  2729  0798  087A               	movf	??___flmul+1,w
  2730  0799  00B0               	movwf	___flmul@prod+1
  2731  079A  0879               	movf	??___flmul,w
  2732  079B  00AF               	movwf	___flmul@prod
  2733  079C                     l1553:
  2734  079C  3001               	movlw	1
  2735  079D  07B3               	addwf	___flmul@temp,f
  2736  079E  1803               	skipnc
  2737  079F  0AB4               	incf	___flmul@temp+1,f
  2738  07A0  3000               	movlw	0
  2739  07A1  07B4               	addwf	___flmul@temp+1,f
  2740  07A2                     l1555:
  2741  07A2  0834               	movf	___flmul@temp+1,w
  2742  07A3  3A80               	xorlw	128
  2743  07A4  00FF               	movwf	btemp+1
  2744  07A5  3080               	movlw	128
  2745  07A6  027F               	subwf	btemp+1,w
  2746  07A7  1D03               	skipz
  2747  07A8  2FAB               	goto	u2205
  2748  07A9  30FF               	movlw	255
  2749  07AA  0233               	subwf	___flmul@temp,w
  2750  07AB                     u2205:
  2751  07AB  1C03               	skipc
  2752  07AC  2FAE               	goto	u2201
  2753  07AD  2FAF               	goto	u2200
  2754  07AE                     u2201:
  2755  07AE  2FBA               	goto	l1559
  2756  07AF                     u2200:
  2757  07AF                     l1557:
  2758  07AF  307F               	movlw	127
  2759  07B0  1283               	bcf	3,5	;RP0=0, select bank0
  2760  07B1  1303               	bcf	3,6	;RP1=0, select bank0
  2761  07B2  00B2               	movwf	___flmul@prod+3
  2762  07B3  3080               	movlw	128
  2763  07B4  00B1               	movwf	___flmul@prod+2
  2764  07B5  3000               	movlw	0
  2765  07B6  00B0               	movwf	___flmul@prod+1
  2766  07B7  3000               	movlw	0
  2767  07B8  00AF               	movwf	___flmul@prod
  2768  07B9  2FEF               	goto	l528
  2769  07BA                     l1559:
  2770  07BA  1283               	bcf	3,5	;RP0=0, select bank0
  2771  07BB  1303               	bcf	3,6	;RP1=0, select bank0
  2772  07BC  0834               	movf	___flmul@temp+1,w
  2773  07BD  3A80               	xorlw	128
  2774  07BE  00FF               	movwf	btemp+1
  2775  07BF  3080               	movlw	128
  2776  07C0  027F               	subwf	btemp+1,w
  2777  07C1  1D03               	skipz
  2778  07C2  2FC5               	goto	u2215
  2779  07C3  3001               	movlw	1
  2780  07C4  0233               	subwf	___flmul@temp,w
  2781  07C5                     u2215:
  2782  07C5  1803               	skipnc
  2783  07C6  2FC8               	goto	u2211
  2784  07C7  2FC9               	goto	u2210
  2785  07C8                     u2211:
  2786  07C8  2FD5               	goto	l1565
  2787  07C9                     u2210:
  2788  07C9                     l1561:
  2789  07C9  3000               	movlw	0
  2790  07CA  1283               	bcf	3,5	;RP0=0, select bank0
  2791  07CB  1303               	bcf	3,6	;RP1=0, select bank0
  2792  07CC  00B2               	movwf	___flmul@prod+3
  2793  07CD  3000               	movlw	0
  2794  07CE  00B1               	movwf	___flmul@prod+2
  2795  07CF  3000               	movlw	0
  2796  07D0  00B0               	movwf	___flmul@prod+1
  2797  07D1  3000               	movlw	0
  2798  07D2  00AF               	movwf	___flmul@prod
  2799  07D3                     l1563:
  2800  07D3  01A8               	clrf	___flmul@sign
  2801  07D4  2FEF               	goto	l528
  2802  07D5                     l1565:
  2803  07D5  1283               	bcf	3,5	;RP0=0, select bank0
  2804  07D6  1303               	bcf	3,6	;RP1=0, select bank0
  2805  07D7  0833               	movf	___flmul@temp,w
  2806  07D8  00F9               	movwf	??___flmul
  2807  07D9  0879               	movf	??___flmul,w
  2808  07DA  00AE               	movwf	___flmul@bexp
  2809  07DB  30FF               	movlw	255
  2810  07DC  05AF               	andwf	___flmul@prod,f
  2811  07DD  30FF               	movlw	255
  2812  07DE  05B0               	andwf	___flmul@prod+1,f
  2813  07DF  307F               	movlw	127
  2814  07E0  05B1               	andwf	___flmul@prod+2,f
  2815  07E1  3000               	movlw	0
  2816  07E2  05B2               	andwf	___flmul@prod+3,f
  2817  07E3                     l1567:
  2818  07E3  1C2E               	btfss	___flmul@bexp,0
  2819  07E4  2FE6               	goto	u2221
  2820  07E5  2FE7               	goto	u2220
  2821  07E6                     u2221:
  2822  07E6  2FE8               	goto	l1571
  2823  07E7                     u2220:
  2824  07E7                     l1569:
  2825  07E7  17B1               	bsf	___flmul@prod+2,7
  2826  07E8                     l1571:
  2827  07E8  082E               	movf	___flmul@bexp,w
  2828  07E9  00F9               	movwf	??___flmul
  2829  07EA  1003               	clrc
  2830  07EB  0C79               	rrf	??___flmul,w
  2831  07EC  00FA               	movwf	??___flmul+1
  2832  07ED  087A               	movf	??___flmul+1,w
  2833  07EE  00B2               	movwf	___flmul@prod+3
  2834  07EF                     l528:
  2835  07EF  0828               	movf	___flmul@sign,w
  2836  07F0  00F9               	movwf	??___flmul
  2837  07F1  0879               	movf	??___flmul,w
  2838  07F2  04B2               	iorwf	___flmul@prod+3,f
  2839  07F3                     l1573:
  2840  07F3  0832               	movf	___flmul@prod+3,w
  2841  07F4  00A3               	movwf	?___flmul+3
  2842  07F5  0831               	movf	___flmul@prod+2,w
  2843  07F6  00A2               	movwf	?___flmul+2
  2844  07F7  0830               	movf	___flmul@prod+1,w
  2845  07F8  00A1               	movwf	?___flmul+1
  2846  07F9  082F               	movf	___flmul@prod,w
  2847  07FA  00A0               	movwf	?___flmul
  2848  07FB                     l516:
  2849  07FB  0008               	return
  2850  07FC                     __end_of___flmul:
  2851                           
  2852                           	psect	text7
  2853  0E81                     __ptext7:	
  2854 ;; *************** function __Umul8_16 *****************
  2855 ;; Defined at:
  2856 ;;		line 4 in file "C:\Program Files\Microchip\xc8\v2.32\pic\sources\c90\common\Umul8_16.c"
  2857 ;; Parameters:    Size  Location     Type
  2858 ;;  multiplier      1    wreg     unsigned char 
  2859 ;;  multiplicand    1    0[COMMON] unsigned char 
  2860 ;; Auto vars:     Size  Location     Type
  2861 ;;  multiplier      1    8[COMMON] unsigned char 
  2862 ;;  word_mpld       2    6[COMMON] unsigned int 
  2863 ;;  product         2    4[COMMON] unsigned int 
  2864 ;; Return value:  Size  Location     Type
  2865 ;;                  2    0[COMMON] unsigned int 
  2866 ;; Registers used:
  2867 ;;		wreg, status,2, status,0
  2868 ;; Tracked objects:
  2869 ;;		On entry : 0/0
  2870 ;;		On exit  : 0/0
  2871 ;;		Unchanged: 0/0
  2872 ;; Data sizes:     COMMON   BANK0   BANK1   BANK3   BANK2
  2873 ;;      Params:         2       0       0       0       0
  2874 ;;      Locals:         5       0       0       0       0
  2875 ;;      Temps:          2       0       0       0       0
  2876 ;;      Totals:         9       0       0       0       0
  2877 ;;Total ram usage:        9 bytes
  2878 ;; Hardware stack levels used: 1
  2879 ;; This function calls:
  2880 ;;		Nothing
  2881 ;; This function is called by:
  2882 ;;		___flmul
  2883 ;; This function uses a non-reentrant model
  2884 ;;
  2885                           
  2886                           
  2887                           ;psect for function __Umul8_16
  2888  0E81                     __Umul8_16:
  2889                           
  2890                           ;incstack = 0
  2891                           ; Regs used in __Umul8_16: [wreg+status,2+status,0]
  2892                           ;__Umul8_16@multiplier stored from wreg
  2893  0E81  00F8               	movwf	__Umul8_16@multiplier
  2894  0E82                     l1163:
  2895  0E82  01F4               	clrf	__Umul8_16@product
  2896  0E83  01F5               	clrf	__Umul8_16@product+1
  2897  0E84                     l1165:
  2898  0E84  0870               	movf	__Umul8_16@multiplicand,w
  2899  0E85  00F2               	movwf	??__Umul8_16
  2900  0E86  01F3               	clrf	??__Umul8_16+1
  2901  0E87  0872               	movf	??__Umul8_16,w
  2902  0E88  00F6               	movwf	__Umul8_16@word_mpld
  2903  0E89  0873               	movf	??__Umul8_16+1,w
  2904  0E8A  00F7               	movwf	__Umul8_16@word_mpld+1
  2905  0E8B                     l1167:
  2906  0E8B  1C78               	btfss	__Umul8_16@multiplier,0
  2907  0E8C  2E8E               	goto	u1201
  2908  0E8D  2E8F               	goto	u1200
  2909  0E8E                     u1201:
  2910  0E8E  2E95               	goto	l535
  2911  0E8F                     u1200:
  2912  0E8F                     l1169:
  2913  0E8F  0876               	movf	__Umul8_16@word_mpld,w
  2914  0E90  07F4               	addwf	__Umul8_16@product,f
  2915  0E91  1803               	skipnc
  2916  0E92  0AF5               	incf	__Umul8_16@product+1,f
  2917  0E93  0877               	movf	__Umul8_16@word_mpld+1,w
  2918  0E94  07F5               	addwf	__Umul8_16@product+1,f
  2919  0E95                     l535:
  2920  0E95  3001               	movlw	1
  2921  0E96                     u1215:
  2922  0E96  1003               	clrc
  2923  0E97  0DF6               	rlf	__Umul8_16@word_mpld,f
  2924  0E98  0DF7               	rlf	__Umul8_16@word_mpld+1,f
  2925  0E99  3EFF               	addlw	-1
  2926  0E9A  1D03               	skipz
  2927  0E9B  2E96               	goto	u1215
  2928  0E9C  1003               	clrc
  2929  0E9D  0CF8               	rrf	__Umul8_16@multiplier,f
  2930  0E9E                     l1171:
  2931  0E9E  0878               	movf	__Umul8_16@multiplier,w
  2932  0E9F  1D03               	btfss	3,2
  2933  0EA0  2EA2               	goto	u1221
  2934  0EA1  2EA3               	goto	u1220
  2935  0EA2                     u1221:
  2936  0EA2  2E8B               	goto	l1167
  2937  0EA3                     u1220:
  2938  0EA3                     l1173:
  2939  0EA3  0875               	movf	__Umul8_16@product+1,w
  2940  0EA4  00F1               	movwf	?__Umul8_16+1
  2941  0EA5  0874               	movf	__Umul8_16@product,w
  2942  0EA6  00F0               	movwf	?__Umul8_16
  2943  0EA7                     l537:
  2944  0EA7  0008               	return
  2945  0EA8                     __end_of__Umul8_16:
  2946                           
  2947                           	psect	text8
  2948  0F5E                     __ptext8:	
  2949 ;; *************** function ___flge *****************
  2950 ;; Defined at:
  2951 ;;		line 4 in file "C:\Program Files\Microchip\xc8\v2.32\pic\sources\c90\common\flge.c"
  2952 ;; Parameters:    Size  Location     Type
  2953 ;;  ff1             4    0[COMMON] unsigned int 
  2954 ;;  ff2             4    4[COMMON] unsigned int 
  2955 ;; Auto vars:     Size  Location     Type
  2956 ;;		None
  2957 ;; Return value:  Size  Location     Type
  2958 ;;		None               void
  2959 ;; Registers used:
  2960 ;;		wreg, status,2, status,0
  2961 ;; Tracked objects:
  2962 ;;		On entry : 0/0
  2963 ;;		On exit  : 0/0
  2964 ;;		Unchanged: 0/0
  2965 ;; Data sizes:     COMMON   BANK0   BANK1   BANK3   BANK2
  2966 ;;      Params:         8       0       0       0       0
  2967 ;;      Locals:         0       0       0       0       0
  2968 ;;      Temps:          4       0       0       0       0
  2969 ;;      Totals:        12       0       0       0       0
  2970 ;;Total ram usage:       12 bytes
  2971 ;; Hardware stack levels used: 1
  2972 ;; This function calls:
  2973 ;;		Nothing
  2974 ;; This function is called by:
  2975 ;;		_main
  2976 ;; This function uses a non-reentrant model
  2977 ;;
  2978                           
  2979                           
  2980                           ;psect for function ___flge
  2981  0F5E                     ___flge:
  2982  0F5E                     l1191:	
  2983                           ;incstack = 0
  2984                           ; Regs used in ___flge: [wreg+status,2+status,0]
  2985                           
  2986  0F5E  3000               	movlw	0
  2987  0F5F  0570               	andwf	___flge@ff1,w
  2988  0F60  00F8               	movwf	??___flge
  2989  0F61  3000               	movlw	0
  2990  0F62  0571               	andwf	___flge@ff1+1,w
  2991  0F63  00F9               	movwf	??___flge+1
  2992  0F64  3080               	movlw	128
  2993  0F65  0572               	andwf	___flge@ff1+2,w
  2994  0F66  00FA               	movwf	??___flge+2
  2995  0F67  307F               	movlw	127
  2996  0F68  0573               	andwf	___flge@ff1+3,w
  2997  0F69  00FB               	movwf	??___flge+3
  2998  0F6A  087B               	movf	??___flge+3,w
  2999  0F6B  047A               	iorwf	??___flge+2,w
  3000  0F6C  0479               	iorwf	??___flge+1,w
  3001  0F6D  0478               	iorwf	??___flge,w
  3002  0F6E  1D03               	skipz
  3003  0F6F  2F71               	goto	u1271
  3004  0F70  2F72               	goto	u1270
  3005  0F71                     u1271:
  3006  0F71  2F7A               	goto	l301
  3007  0F72                     u1270:
  3008  0F72                     l1193:
  3009  0F72  3000               	movlw	0
  3010  0F73  00F3               	movwf	___flge@ff1+3
  3011  0F74  3000               	movlw	0
  3012  0F75  00F2               	movwf	___flge@ff1+2
  3013  0F76  3000               	movlw	0
  3014  0F77  00F1               	movwf	___flge@ff1+1
  3015  0F78  3000               	movlw	0
  3016  0F79  00F0               	movwf	___flge@ff1
  3017  0F7A                     l301:
  3018  0F7A  3000               	movlw	0
  3019  0F7B  0574               	andwf	___flge@ff2,w
  3020  0F7C  00F8               	movwf	??___flge
  3021  0F7D  3000               	movlw	0
  3022  0F7E  0575               	andwf	___flge@ff2+1,w
  3023  0F7F  00F9               	movwf	??___flge+1
  3024  0F80  3080               	movlw	128
  3025  0F81  0576               	andwf	___flge@ff2+2,w
  3026  0F82  00FA               	movwf	??___flge+2
  3027  0F83  307F               	movlw	127
  3028  0F84  0577               	andwf	___flge@ff2+3,w
  3029  0F85  00FB               	movwf	??___flge+3
  3030  0F86  087B               	movf	??___flge+3,w
  3031  0F87  047A               	iorwf	??___flge+2,w
  3032  0F88  0479               	iorwf	??___flge+1,w
  3033  0F89  0478               	iorwf	??___flge,w
  3034  0F8A  1D03               	skipz
  3035  0F8B  2F8D               	goto	u1281
  3036  0F8C  2F8E               	goto	u1280
  3037  0F8D                     u1281:
  3038  0F8D  2F96               	goto	l1197
  3039  0F8E                     u1280:
  3040  0F8E                     l1195:
  3041  0F8E  3000               	movlw	0
  3042  0F8F  00F7               	movwf	___flge@ff2+3
  3043  0F90  3000               	movlw	0
  3044  0F91  00F6               	movwf	___flge@ff2+2
  3045  0F92  3000               	movlw	0
  3046  0F93  00F5               	movwf	___flge@ff2+1
  3047  0F94  3000               	movlw	0
  3048  0F95  00F4               	movwf	___flge@ff2
  3049  0F96                     l1197:
  3050  0F96  1FF3               	btfss	___flge@ff1+3,7
  3051  0F97  2F99               	goto	u1291
  3052  0F98  2F9A               	goto	u1290
  3053  0F99                     u1291:
  3054  0F99  2FBE               	goto	l1201
  3055  0F9A                     u1290:
  3056  0F9A                     l1199:
  3057  0F9A  3000               	movlw	0
  3058  0F9B  00F8               	movwf	??___flge
  3059  0F9C  3000               	movlw	0
  3060  0F9D  00F9               	movwf	??___flge+1
  3061  0F9E  3000               	movlw	0
  3062  0F9F  00FA               	movwf	??___flge+2
  3063  0FA0  3080               	movlw	128
  3064  0FA1  00FB               	movwf	??___flge+3
  3065  0FA2  0870               	movf	___flge@ff1,w
  3066  0FA3  02F8               	subwf	??___flge,f
  3067  0FA4  0871               	movf	___flge@ff1+1,w
  3068  0FA5  1C03               	skipc
  3069  0FA6  0F71               	incfsz	___flge@ff1+1,w
  3070  0FA7  2FA9               	goto	u1301
  3071  0FA8  2FAA               	goto	u1302
  3072  0FA9                     u1301:
  3073  0FA9  02F9               	subwf	??___flge+1,f
  3074  0FAA                     u1302:
  3075  0FAA  0872               	movf	___flge@ff1+2,w
  3076  0FAB  1C03               	skipc
  3077  0FAC  0F72               	incfsz	___flge@ff1+2,w
  3078  0FAD  2FAF               	goto	u1303
  3079  0FAE  2FB0               	goto	u1304
  3080  0FAF                     u1303:
  3081  0FAF  02FA               	subwf	??___flge+2,f
  3082  0FB0                     u1304:
  3083  0FB0  0873               	movf	___flge@ff1+3,w
  3084  0FB1  1C03               	skipc
  3085  0FB2  0F73               	incfsz	___flge@ff1+3,w
  3086  0FB3  2FB5               	goto	u1305
  3087  0FB4  2FB6               	goto	u1306
  3088  0FB5                     u1305:
  3089  0FB5  02FB               	subwf	??___flge+3,f
  3090  0FB6                     u1306:
  3091  0FB6  087B               	movf	??___flge+3,w
  3092  0FB7  00F3               	movwf	___flge@ff1+3
  3093  0FB8  087A               	movf	??___flge+2,w
  3094  0FB9  00F2               	movwf	___flge@ff1+2
  3095  0FBA  0879               	movf	??___flge+1,w
  3096  0FBB  00F1               	movwf	___flge@ff1+1
  3097  0FBC  0878               	movf	??___flge,w
  3098  0FBD  00F0               	movwf	___flge@ff1
  3099  0FBE                     l1201:
  3100  0FBE  1FF7               	btfss	___flge@ff2+3,7
  3101  0FBF  2FC1               	goto	u1311
  3102  0FC0  2FC2               	goto	u1310
  3103  0FC1                     u1311:
  3104  0FC1  2FE6               	goto	l304
  3105  0FC2                     u1310:
  3106  0FC2                     l1203:
  3107  0FC2  3000               	movlw	0
  3108  0FC3  00F8               	movwf	??___flge
  3109  0FC4  3000               	movlw	0
  3110  0FC5  00F9               	movwf	??___flge+1
  3111  0FC6  3000               	movlw	0
  3112  0FC7  00FA               	movwf	??___flge+2
  3113  0FC8  3080               	movlw	128
  3114  0FC9  00FB               	movwf	??___flge+3
  3115  0FCA  0874               	movf	___flge@ff2,w
  3116  0FCB  02F8               	subwf	??___flge,f
  3117  0FCC  0875               	movf	___flge@ff2+1,w
  3118  0FCD  1C03               	skipc
  3119  0FCE  0F75               	incfsz	___flge@ff2+1,w
  3120  0FCF  2FD1               	goto	u1321
  3121  0FD0  2FD2               	goto	u1322
  3122  0FD1                     u1321:
  3123  0FD1  02F9               	subwf	??___flge+1,f
  3124  0FD2                     u1322:
  3125  0FD2  0876               	movf	___flge@ff2+2,w
  3126  0FD3  1C03               	skipc
  3127  0FD4  0F76               	incfsz	___flge@ff2+2,w
  3128  0FD5  2FD7               	goto	u1323
  3129  0FD6  2FD8               	goto	u1324
  3130  0FD7                     u1323:
  3131  0FD7  02FA               	subwf	??___flge+2,f
  3132  0FD8                     u1324:
  3133  0FD8  0877               	movf	___flge@ff2+3,w
  3134  0FD9  1C03               	skipc
  3135  0FDA  0F77               	incfsz	___flge@ff2+3,w
  3136  0FDB  2FDD               	goto	u1325
  3137  0FDC  2FDE               	goto	u1326
  3138  0FDD                     u1325:
  3139  0FDD  02FB               	subwf	??___flge+3,f
  3140  0FDE                     u1326:
  3141  0FDE  087B               	movf	??___flge+3,w
  3142  0FDF  00F7               	movwf	___flge@ff2+3
  3143  0FE0  087A               	movf	??___flge+2,w
  3144  0FE1  00F6               	movwf	___flge@ff2+2
  3145  0FE2  0879               	movf	??___flge+1,w
  3146  0FE3  00F5               	movwf	___flge@ff2+1
  3147  0FE4  0878               	movf	??___flge,w
  3148  0FE5  00F4               	movwf	___flge@ff2
  3149  0FE6                     l304:
  3150  0FE6  3080               	movlw	128
  3151  0FE7  06F3               	xorwf	___flge@ff1+3,f
  3152  0FE8  3080               	movlw	128
  3153  0FE9  06F7               	xorwf	___flge@ff2+3,f
  3154  0FEA  0877               	movf	___flge@ff2+3,w
  3155  0FEB  0273               	subwf	___flge@ff1+3,w
  3156  0FEC  1D03               	skipz
  3157  0FED  2FF8               	goto	u1335
  3158  0FEE  0876               	movf	___flge@ff2+2,w
  3159  0FEF  0272               	subwf	___flge@ff1+2,w
  3160  0FF0  1D03               	skipz
  3161  0FF1  2FF8               	goto	u1335
  3162  0FF2  0875               	movf	___flge@ff2+1,w
  3163  0FF3  0271               	subwf	___flge@ff1+1,w
  3164  0FF4  1D03               	skipz
  3165  0FF5  2FF8               	goto	u1335
  3166  0FF6  0874               	movf	___flge@ff2,w
  3167  0FF7  0270               	subwf	___flge@ff1,w
  3168  0FF8                     u1335:
  3169  0FF8  1803               	skipnc
  3170  0FF9  2FFB               	goto	u1331
  3171  0FFA  2FFC               	goto	u1330
  3172  0FFB                     u1331:
  3173  0FFB  2FFE               	goto	l1207
  3174  0FFC                     u1330:
  3175  0FFC                     l1205:
  3176  0FFC  1003               	clrc
  3177  0FFD  2FFF               	goto	l305
  3178  0FFE                     l1207:
  3179  0FFE  1403               	setc
  3180  0FFF                     l305:
  3181  0FFF  0008               	return
  3182  1000                     __end_of___flge:
  3183                           
  3184                           	psect	text9
  3185  02BE                     __ptext9:	
  3186 ;; *************** function ___fldiv *****************
  3187 ;; Defined at:
  3188 ;;		line 8 in file "C:\Program Files\Microchip\xc8\v2.32\pic\sources\c90\common\sprcdiv.c"
  3189 ;; Parameters:    Size  Location     Type
  3190 ;;  a               4    6[BANK0 ] unsigned int 
  3191 ;;  b               4   10[BANK0 ] unsigned int 
  3192 ;; Auto vars:     Size  Location     Type
  3193 ;;  grs             4   26[BANK0 ] unsigned long 
  3194 ;;  rem             4   19[BANK0 ] unsigned long 
  3195 ;;  new_exp         2   24[BANK0 ] int 
  3196 ;;  aexp            1   31[BANK0 ] unsigned char 
  3197 ;;  bexp            1   30[BANK0 ] unsigned char 
  3198 ;;  sign            1   23[BANK0 ] unsigned char 
  3199 ;; Return value:  Size  Location     Type
  3200 ;;                  4    6[BANK0 ] unsigned char 
  3201 ;; Registers used:
  3202 ;;		wreg, status,2, status,0, btemp+1
  3203 ;; Tracked objects:
  3204 ;;		On entry : 0/0
  3205 ;;		On exit  : 0/0
  3206 ;;		Unchanged: 0/0
  3207 ;; Data sizes:     COMMON   BANK0   BANK1   BANK3   BANK2
  3208 ;;      Params:         0       8       0       0       0
  3209 ;;      Locals:         0      13       0       0       0
  3210 ;;      Temps:          0       5       0       0       0
  3211 ;;      Totals:         0      26       0       0       0
  3212 ;;Total ram usage:       26 bytes
  3213 ;; Hardware stack levels used: 1
  3214 ;; This function calls:
  3215 ;;		Nothing
  3216 ;; This function is called by:
  3217 ;;		_main
  3218 ;; This function uses a non-reentrant model
  3219 ;;
  3220                           
  3221                           
  3222                           ;psect for function ___fldiv
  3223  02BE                     ___fldiv:
  3224  02BE                     l1295:	
  3225                           ;incstack = 0
  3226                           ; Regs used in ___fldiv: [wreg+status,2+status,0+btemp+1]
  3227                           
  3228  02BE  1283               	bcf	3,5	;RP0=0, select bank0
  3229  02BF  1303               	bcf	3,6	;RP1=0, select bank0
  3230  02C0  082D               	movf	___fldiv@b+3,w
  3231  02C1  3980               	andlw	128
  3232  02C2  00AE               	movwf	??___fldiv
  3233  02C3  082E               	movf	??___fldiv,w
  3234  02C4  00B7               	movwf	___fldiv@sign
  3235  02C5                     l1297:
  3236  02C5  082D               	movf	___fldiv@b+3,w
  3237  02C6  00AE               	movwf	??___fldiv
  3238  02C7  072E               	addwf	??___fldiv,w
  3239  02C8  00AF               	movwf	??___fldiv+1
  3240  02C9  082F               	movf	??___fldiv+1,w
  3241  02CA  00BE               	movwf	___fldiv@bexp
  3242  02CB                     l1299:
  3243  02CB  1FAC               	btfss	___fldiv@b+2,7
  3244  02CC  2ACE               	goto	u1571
  3245  02CD  2ACF               	goto	u1570
  3246  02CE                     u1571:
  3247  02CE  2AD0               	goto	l1303
  3248  02CF                     u1570:
  3249  02CF                     l1301:
  3250  02CF  143E               	bsf	___fldiv@bexp,0
  3251  02D0                     l1303:
  3252  02D0  083E               	movf	___fldiv@bexp,w
  3253  02D1  1903               	btfsc	3,2
  3254  02D2  2AD4               	goto	u1581
  3255  02D3  2AD5               	goto	u1580
  3256  02D4                     u1581:
  3257  02D4  2AE5               	goto	l1313
  3258  02D5                     u1580:
  3259  02D5                     l1305:
  3260  02D5  0A3E               	incf	___fldiv@bexp,w
  3261  02D6  1D03               	btfss	3,2
  3262  02D7  2AD9               	goto	u1591
  3263  02D8  2ADA               	goto	u1590
  3264  02D9                     u1591:
  3265  02D9  2AE2               	goto	l1309
  3266  02DA                     u1590:
  3267  02DA                     l1307:
  3268  02DA  3000               	movlw	0
  3269  02DB  00AD               	movwf	___fldiv@b+3
  3270  02DC  3000               	movlw	0
  3271  02DD  00AC               	movwf	___fldiv@b+2
  3272  02DE  3000               	movlw	0
  3273  02DF  00AB               	movwf	___fldiv@b+1
  3274  02E0  3000               	movlw	0
  3275  02E1  00AA               	movwf	___fldiv@b
  3276  02E2                     l1309:
  3277  02E2  17AC               	bsf	___fldiv@b+2,7
  3278  02E3                     l1311:
  3279  02E3  01AD               	clrf	___fldiv@b+3
  3280  02E4  2AED               	goto	l1315
  3281  02E5                     l1313:
  3282  02E5  3000               	movlw	0
  3283  02E6  00AD               	movwf	___fldiv@b+3
  3284  02E7  3000               	movlw	0
  3285  02E8  00AC               	movwf	___fldiv@b+2
  3286  02E9  3000               	movlw	0
  3287  02EA  00AB               	movwf	___fldiv@b+1
  3288  02EB  3000               	movlw	0
  3289  02EC  00AA               	movwf	___fldiv@b
  3290  02ED                     l1315:
  3291  02ED  0829               	movf	___fldiv@a+3,w
  3292  02EE  3980               	andlw	128
  3293  02EF  00AE               	movwf	??___fldiv
  3294  02F0  082E               	movf	??___fldiv,w
  3295  02F1  06B7               	xorwf	___fldiv@sign,f
  3296  02F2                     l1317:
  3297  02F2  0829               	movf	___fldiv@a+3,w
  3298  02F3  00AE               	movwf	??___fldiv
  3299  02F4  072E               	addwf	??___fldiv,w
  3300  02F5  00AF               	movwf	??___fldiv+1
  3301  02F6  082F               	movf	??___fldiv+1,w
  3302  02F7  00BF               	movwf	___fldiv@aexp
  3303  02F8                     l1319:
  3304  02F8  1FA8               	btfss	___fldiv@a+2,7
  3305  02F9  2AFB               	goto	u1601
  3306  02FA  2AFC               	goto	u1600
  3307  02FB                     u1601:
  3308  02FB  2AFD               	goto	l1323
  3309  02FC                     u1600:
  3310  02FC                     l1321:
  3311  02FC  143F               	bsf	___fldiv@aexp,0
  3312  02FD                     l1323:
  3313  02FD  083F               	movf	___fldiv@aexp,w
  3314  02FE  1903               	btfsc	3,2
  3315  02FF  2B01               	goto	u1611
  3316  0300  2B02               	goto	u1610
  3317  0301                     u1611:
  3318  0301  2B12               	goto	l1333
  3319  0302                     u1610:
  3320  0302                     l1325:
  3321  0302  0A3F               	incf	___fldiv@aexp,w
  3322  0303  1D03               	btfss	3,2
  3323  0304  2B06               	goto	u1621
  3324  0305  2B07               	goto	u1620
  3325  0306                     u1621:
  3326  0306  2B0F               	goto	l1329
  3327  0307                     u1620:
  3328  0307                     l1327:
  3329  0307  3000               	movlw	0
  3330  0308  00A9               	movwf	___fldiv@a+3
  3331  0309  3000               	movlw	0
  3332  030A  00A8               	movwf	___fldiv@a+2
  3333  030B  3000               	movlw	0
  3334  030C  00A7               	movwf	___fldiv@a+1
  3335  030D  3000               	movlw	0
  3336  030E  00A6               	movwf	___fldiv@a
  3337  030F                     l1329:
  3338  030F  17A8               	bsf	___fldiv@a+2,7
  3339  0310                     l1331:
  3340  0310  01A9               	clrf	___fldiv@a+3
  3341  0311  2B1A               	goto	l476
  3342  0312                     l1333:
  3343  0312  3000               	movlw	0
  3344  0313  00A9               	movwf	___fldiv@a+3
  3345  0314  3000               	movlw	0
  3346  0315  00A8               	movwf	___fldiv@a+2
  3347  0316  3000               	movlw	0
  3348  0317  00A7               	movwf	___fldiv@a+1
  3349  0318  3000               	movlw	0
  3350  0319  00A6               	movwf	___fldiv@a
  3351  031A                     l476:
  3352  031A  0829               	movf	___fldiv@a+3,w
  3353  031B  0428               	iorwf	___fldiv@a+2,w
  3354  031C  0427               	iorwf	___fldiv@a+1,w
  3355  031D  0426               	iorwf	___fldiv@a,w
  3356  031E  1D03               	skipz
  3357  031F  2B21               	goto	u1631
  3358  0320  2B22               	goto	u1630
  3359  0321                     u1631:
  3360  0321  2B3B               	goto	l1343
  3361  0322                     u1630:
  3362  0322                     l1335:
  3363  0322  3000               	movlw	0
  3364  0323  00AD               	movwf	___fldiv@b+3
  3365  0324  3000               	movlw	0
  3366  0325  00AC               	movwf	___fldiv@b+2
  3367  0326  3000               	movlw	0
  3368  0327  00AB               	movwf	___fldiv@b+1
  3369  0328  3000               	movlw	0
  3370  0329  00AA               	movwf	___fldiv@b
  3371  032A  3080               	movlw	128
  3372  032B  04AC               	iorwf	___fldiv@b+2,f
  3373  032C  307F               	movlw	127
  3374  032D  04AD               	iorwf	___fldiv@b+3,f
  3375  032E                     l1337:
  3376  032E  0837               	movf	___fldiv@sign,w
  3377  032F  00AE               	movwf	??___fldiv
  3378  0330  082E               	movf	??___fldiv,w
  3379  0331  04AD               	iorwf	___fldiv@b+3,f
  3380  0332                     l1339:
  3381  0332  082D               	movf	___fldiv@b+3,w
  3382  0333  00A9               	movwf	?___fldiv+3
  3383  0334  082C               	movf	___fldiv@b+2,w
  3384  0335  00A8               	movwf	?___fldiv+2
  3385  0336  082B               	movf	___fldiv@b+1,w
  3386  0337  00A7               	movwf	?___fldiv+1
  3387  0338  082A               	movf	___fldiv@b,w
  3388  0339  00A6               	movwf	?___fldiv
  3389  033A  2C9A               	goto	l478
  3390  033B                     l1343:
  3391  033B  083E               	movf	___fldiv@bexp,w
  3392  033C  1D03               	btfss	3,2
  3393  033D  2B3F               	goto	u1641
  3394  033E  2B40               	goto	u1640
  3395  033F                     u1641:
  3396  033F  2B49               	goto	l1349
  3397  0340                     u1640:
  3398  0340                     l1345:
  3399  0340  3000               	movlw	0
  3400  0341  00A9               	movwf	?___fldiv+3
  3401  0342  3000               	movlw	0
  3402  0343  00A8               	movwf	?___fldiv+2
  3403  0344  3000               	movlw	0
  3404  0345  00A7               	movwf	?___fldiv+1
  3405  0346  3000               	movlw	0
  3406  0347  00A6               	movwf	?___fldiv
  3407  0348  2C9A               	goto	l478
  3408  0349                     l1349:
  3409  0349  083E               	movf	___fldiv@bexp,w
  3410  034A  00AE               	movwf	??___fldiv
  3411  034B  01AF               	clrf	??___fldiv+1
  3412  034C  082F               	movf	??___fldiv+1,w
  3413  034D  00B1               	movwf	??___fldiv+3
  3414  034E  083F               	movf	___fldiv@aexp,w
  3415  034F  022E               	subwf	??___fldiv,w
  3416  0350  00B0               	movwf	??___fldiv+2
  3417  0351  1C03               	skipc
  3418  0352  03B1               	decf	??___fldiv+3,f
  3419  0353  0830               	movf	??___fldiv+2,w
  3420  0354  3E7F               	addlw	127
  3421  0355  00B8               	movwf	___fldiv@new_exp
  3422  0356  0831               	movf	??___fldiv+3,w
  3423  0357  1803               	skipnc
  3424  0358  3E01               	addlw	1
  3425  0359  3E00               	addlw	0
  3426  035A  00B9               	movwf	___fldiv@new_exp+1
  3427  035B                     l1351:
  3428  035B  082D               	movf	___fldiv@b+3,w
  3429  035C  00B6               	movwf	___fldiv@rem+3
  3430  035D  082C               	movf	___fldiv@b+2,w
  3431  035E  00B5               	movwf	___fldiv@rem+2
  3432  035F  082B               	movf	___fldiv@b+1,w
  3433  0360  00B4               	movwf	___fldiv@rem+1
  3434  0361  082A               	movf	___fldiv@b,w
  3435  0362  00B3               	movwf	___fldiv@rem
  3436  0363                     l1353:
  3437  0363  3000               	movlw	0
  3438  0364  00AD               	movwf	___fldiv@b+3
  3439  0365  3000               	movlw	0
  3440  0366  00AC               	movwf	___fldiv@b+2
  3441  0367  3000               	movlw	0
  3442  0368  00AB               	movwf	___fldiv@b+1
  3443  0369  3000               	movlw	0
  3444  036A  00AA               	movwf	___fldiv@b
  3445  036B                     l1355:
  3446  036B  3000               	movlw	0
  3447  036C  00BD               	movwf	___fldiv@grs+3
  3448  036D  3000               	movlw	0
  3449  036E  00BC               	movwf	___fldiv@grs+2
  3450  036F  3000               	movlw	0
  3451  0370  00BB               	movwf	___fldiv@grs+1
  3452  0371  3000               	movlw	0
  3453  0372  00BA               	movwf	___fldiv@grs
  3454  0373                     l1357:
  3455  0373  01BF               	clrf	___fldiv@aexp
  3456  0374  2BBF               	goto	l1377
  3457  0375                     l1359:
  3458  0375  083F               	movf	___fldiv@aexp,w
  3459  0376  1903               	btfsc	3,2
  3460  0377  2B79               	goto	u1651
  3461  0378  2B7A               	goto	u1650
  3462  0379                     u1651:
  3463  0379  2B9A               	goto	l1369
  3464  037A                     u1650:
  3465  037A                     l1361:
  3466  037A  3001               	movlw	1
  3467  037B  00AE               	movwf	??___fldiv
  3468  037C                     u1665:
  3469  037C  1003               	clrc
  3470  037D  0DB3               	rlf	___fldiv@rem,f
  3471  037E  0DB4               	rlf	___fldiv@rem+1,f
  3472  037F  0DB5               	rlf	___fldiv@rem+2,f
  3473  0380  0DB6               	rlf	___fldiv@rem+3,f
  3474  0381  0BAE               	decfsz	??___fldiv,f
  3475  0382  2B7C               	goto	u1665
  3476  0383  3001               	movlw	1
  3477  0384  00AE               	movwf	??___fldiv
  3478  0385                     u1675:
  3479  0385  1003               	clrc
  3480  0386  0DAA               	rlf	___fldiv@b,f
  3481  0387  0DAB               	rlf	___fldiv@b+1,f
  3482  0388  0DAC               	rlf	___fldiv@b+2,f
  3483  0389  0DAD               	rlf	___fldiv@b+3,f
  3484  038A  0BAE               	decfsz	??___fldiv,f
  3485  038B  2B85               	goto	u1675
  3486  038C                     l1363:
  3487  038C  1FBD               	btfss	___fldiv@grs+3,7
  3488  038D  2B8F               	goto	u1681
  3489  038E  2B90               	goto	u1680
  3490  038F                     u1681:
  3491  038F  2B91               	goto	l1367
  3492  0390                     u1680:
  3493  0390                     l1365:
  3494  0390  142A               	bsf	___fldiv@b,0
  3495  0391                     l1367:
  3496  0391  3001               	movlw	1
  3497  0392  00AE               	movwf	??___fldiv
  3498  0393                     u1695:
  3499  0393  1003               	clrc
  3500  0394  0DBA               	rlf	___fldiv@grs,f
  3501  0395  0DBB               	rlf	___fldiv@grs+1,f
  3502  0396  0DBC               	rlf	___fldiv@grs+2,f
  3503  0397  0DBD               	rlf	___fldiv@grs+3,f
  3504  0398  0BAE               	decfsz	??___fldiv,f
  3505  0399  2B93               	goto	u1695
  3506  039A                     l1369:
  3507  039A  0829               	movf	___fldiv@a+3,w
  3508  039B  0236               	subwf	___fldiv@rem+3,w
  3509  039C  1D03               	skipz
  3510  039D  2BA8               	goto	u1705
  3511  039E  0828               	movf	___fldiv@a+2,w
  3512  039F  0235               	subwf	___fldiv@rem+2,w
  3513  03A0  1D03               	skipz
  3514  03A1  2BA8               	goto	u1705
  3515  03A2  0827               	movf	___fldiv@a+1,w
  3516  03A3  0234               	subwf	___fldiv@rem+1,w
  3517  03A4  1D03               	skipz
  3518  03A5  2BA8               	goto	u1705
  3519  03A6  0826               	movf	___fldiv@a,w
  3520  03A7  0233               	subwf	___fldiv@rem,w
  3521  03A8                     u1705:
  3522  03A8  1C03               	skipc
  3523  03A9  2BAB               	goto	u1701
  3524  03AA  2BAC               	goto	u1700
  3525  03AB                     u1701:
  3526  03AB  2BBB               	goto	l1375
  3527  03AC                     u1700:
  3528  03AC                     l1371:
  3529  03AC  173D               	bsf	___fldiv@grs+3,6
  3530  03AD                     l1373:
  3531  03AD  0826               	movf	___fldiv@a,w
  3532  03AE  02B3               	subwf	___fldiv@rem,f
  3533  03AF  0827               	movf	___fldiv@a+1,w
  3534  03B0  1C03               	skipc
  3535  03B1  0F27               	incfsz	___fldiv@a+1,w
  3536  03B2  02B4               	subwf	___fldiv@rem+1,f
  3537  03B3  0828               	movf	___fldiv@a+2,w
  3538  03B4  1C03               	skipc
  3539  03B5  0F28               	incfsz	___fldiv@a+2,w
  3540  03B6  02B5               	subwf	___fldiv@rem+2,f
  3541  03B7  0829               	movf	___fldiv@a+3,w
  3542  03B8  1C03               	skipc
  3543  03B9  0F29               	incfsz	___fldiv@a+3,w
  3544  03BA  02B6               	subwf	___fldiv@rem+3,f
  3545  03BB                     l1375:
  3546  03BB  3001               	movlw	1
  3547  03BC  00AE               	movwf	??___fldiv
  3548  03BD  082E               	movf	??___fldiv,w
  3549  03BE  07BF               	addwf	___fldiv@aexp,f
  3550  03BF                     l1377:
  3551  03BF  301A               	movlw	26
  3552  03C0  023F               	subwf	___fldiv@aexp,w
  3553  03C1  1C03               	skipc
  3554  03C2  2BC4               	goto	u1711
  3555  03C3  2BC5               	goto	u1710
  3556  03C4                     u1711:
  3557  03C4  2B75               	goto	l1359
  3558  03C5                     u1710:
  3559  03C5                     l1379:
  3560  03C5  0836               	movf	___fldiv@rem+3,w
  3561  03C6  0435               	iorwf	___fldiv@rem+2,w
  3562  03C7  0434               	iorwf	___fldiv@rem+1,w
  3563  03C8  0433               	iorwf	___fldiv@rem,w
  3564  03C9  1903               	skipnz
  3565  03CA  2BCC               	goto	u1721
  3566  03CB  2BCD               	goto	u1720
  3567  03CC                     u1721:
  3568  03CC  2BEC               	goto	l1393
  3569  03CD                     u1720:
  3570  03CD                     l1381:
  3571  03CD  143A               	bsf	___fldiv@grs,0
  3572  03CE  2BEC               	goto	l1393
  3573  03CF                     l1383:
  3574  03CF  3001               	movlw	1
  3575  03D0  00AE               	movwf	??___fldiv
  3576  03D1                     u1735:
  3577  03D1  1003               	clrc
  3578  03D2  0DAA               	rlf	___fldiv@b,f
  3579  03D3  0DAB               	rlf	___fldiv@b+1,f
  3580  03D4  0DAC               	rlf	___fldiv@b+2,f
  3581  03D5  0DAD               	rlf	___fldiv@b+3,f
  3582  03D6  0BAE               	decfsz	??___fldiv,f
  3583  03D7  2BD1               	goto	u1735
  3584  03D8                     l1385:
  3585  03D8  1FBD               	btfss	___fldiv@grs+3,7
  3586  03D9  2BDB               	goto	u1741
  3587  03DA  2BDC               	goto	u1740
  3588  03DB                     u1741:
  3589  03DB  2BDD               	goto	l1389
  3590  03DC                     u1740:
  3591  03DC                     l1387:
  3592  03DC  142A               	bsf	___fldiv@b,0
  3593  03DD                     l1389:
  3594  03DD  3001               	movlw	1
  3595  03DE  00AE               	movwf	??___fldiv
  3596  03DF                     u1755:
  3597  03DF  1003               	clrc
  3598  03E0  0DBA               	rlf	___fldiv@grs,f
  3599  03E1  0DBB               	rlf	___fldiv@grs+1,f
  3600  03E2  0DBC               	rlf	___fldiv@grs+2,f
  3601  03E3  0DBD               	rlf	___fldiv@grs+3,f
  3602  03E4  0BAE               	decfsz	??___fldiv,f
  3603  03E5  2BDF               	goto	u1755
  3604  03E6                     l1391:
  3605  03E6  30FF               	movlw	255
  3606  03E7  07B8               	addwf	___fldiv@new_exp,f
  3607  03E8  1803               	skipnc
  3608  03E9  0AB9               	incf	___fldiv@new_exp+1,f
  3609  03EA  30FF               	movlw	255
  3610  03EB  07B9               	addwf	___fldiv@new_exp+1,f
  3611  03EC                     l1393:
  3612  03EC  1FAC               	btfss	___fldiv@b+2,7
  3613  03ED  2BEF               	goto	u1761
  3614  03EE  2BF0               	goto	u1760
  3615  03EF                     u1761:
  3616  03EF  2BCF               	goto	l1383
  3617  03F0                     u1760:
  3618  03F0                     l1395:
  3619  03F0  01BF               	clrf	___fldiv@aexp
  3620  03F1                     l1397:
  3621  03F1  1FBD               	btfss	___fldiv@grs+3,7
  3622  03F2  2BF4               	goto	u1771
  3623  03F3  2BF5               	goto	u1770
  3624  03F4                     u1771:
  3625  03F4  2C11               	goto	l1405
  3626  03F5                     u1770:
  3627  03F5                     l1399:
  3628  03F5  30FF               	movlw	255
  3629  03F6  053A               	andwf	___fldiv@grs,w
  3630  03F7  00AE               	movwf	??___fldiv
  3631  03F8  30FF               	movlw	255
  3632  03F9  053B               	andwf	___fldiv@grs+1,w
  3633  03FA  00AF               	movwf	??___fldiv+1
  3634  03FB  30FF               	movlw	255
  3635  03FC  053C               	andwf	___fldiv@grs+2,w
  3636  03FD  00B0               	movwf	??___fldiv+2
  3637  03FE  307F               	movlw	127
  3638  03FF  053D               	andwf	___fldiv@grs+3,w
  3639  0400  00B1               	movwf	??___fldiv+3
  3640  0401  0831               	movf	??___fldiv+3,w
  3641  0402  0430               	iorwf	??___fldiv+2,w
  3642  0403  042F               	iorwf	??___fldiv+1,w
  3643  0404  042E               	iorwf	??___fldiv,w
  3644  0405  1903               	skipnz
  3645  0406  2C08               	goto	u1781
  3646  0407  2C09               	goto	u1780
  3647  0408                     u1781:
  3648  0408  2C0C               	goto	l492
  3649  0409                     u1780:
  3650  0409                     l1401:
  3651  0409  01BF               	clrf	___fldiv@aexp
  3652  040A  0ABF               	incf	___fldiv@aexp,f
  3653  040B  2C11               	goto	l1405
  3654  040C                     l492:
  3655  040C  1C2A               	btfss	___fldiv@b,0
  3656  040D  2C0F               	goto	u1791
  3657  040E  2C10               	goto	u1790
  3658  040F                     u1791:
  3659  040F  2C11               	goto	l1405
  3660  0410                     u1790:
  3661  0410  2C09               	goto	l1401
  3662  0411                     l1405:
  3663  0411  083F               	movf	___fldiv@aexp,w
  3664  0412  1903               	btfsc	3,2
  3665  0413  2C15               	goto	u1801
  3666  0414  2C16               	goto	u1800
  3667  0415                     u1801:
  3668  0415  2C47               	goto	l1415
  3669  0416                     u1800:
  3670  0416                     l1407:
  3671  0416  3001               	movlw	1
  3672  0417  07AA               	addwf	___fldiv@b,f
  3673  0418  3000               	movlw	0
  3674  0419  1803               	skipnc
  3675  041A  3001               	movlw	1
  3676  041B  07AB               	addwf	___fldiv@b+1,f
  3677  041C  3000               	movlw	0
  3678  041D  1803               	skipnc
  3679  041E  3001               	movlw	1
  3680  041F  07AC               	addwf	___fldiv@b+2,f
  3681  0420  3000               	movlw	0
  3682  0421  1803               	skipnc
  3683  0422  3001               	movlw	1
  3684  0423  07AD               	addwf	___fldiv@b+3,f
  3685  0424                     l1409:
  3686  0424  1C2D               	btfss	___fldiv@b+3,0
  3687  0425  2C27               	goto	u1811
  3688  0426  2C28               	goto	u1810
  3689  0427                     u1811:
  3690  0427  2C47               	goto	l1415
  3691  0428                     u1810:
  3692  0428                     l1411:
  3693  0428  082A               	movf	___fldiv@b,w
  3694  0429  00AE               	movwf	??___fldiv
  3695  042A  082B               	movf	___fldiv@b+1,w
  3696  042B  00AF               	movwf	??___fldiv+1
  3697  042C  082C               	movf	___fldiv@b+2,w
  3698  042D  00B0               	movwf	??___fldiv+2
  3699  042E  082D               	movf	___fldiv@b+3,w
  3700  042F  00B1               	movwf	??___fldiv+3
  3701  0430  3001               	movlw	1
  3702  0431  00B2               	movwf	??___fldiv+4
  3703  0432                     u1825:
  3704  0432  0D31               	rlf	??___fldiv+3,w
  3705  0433  0CB1               	rrf	??___fldiv+3,f
  3706  0434  0CB0               	rrf	??___fldiv+2,f
  3707  0435  0CAF               	rrf	??___fldiv+1,f
  3708  0436  0CAE               	rrf	??___fldiv,f
  3709  0437                     u1820:
  3710  0437  0BB2               	decfsz	??___fldiv+4,f
  3711  0438  2C32               	goto	u1825
  3712  0439  0831               	movf	??___fldiv+3,w
  3713  043A  00AD               	movwf	___fldiv@b+3
  3714  043B  0830               	movf	??___fldiv+2,w
  3715  043C  00AC               	movwf	___fldiv@b+2
  3716  043D  082F               	movf	??___fldiv+1,w
  3717  043E  00AB               	movwf	___fldiv@b+1
  3718  043F  082E               	movf	??___fldiv,w
  3719  0440  00AA               	movwf	___fldiv@b
  3720  0441                     l1413:
  3721  0441  3001               	movlw	1
  3722  0442  07B8               	addwf	___fldiv@new_exp,f
  3723  0443  1803               	skipnc
  3724  0444  0AB9               	incf	___fldiv@new_exp+1,f
  3725  0445  3000               	movlw	0
  3726  0446  07B9               	addwf	___fldiv@new_exp+1,f
  3727  0447                     l1415:
  3728  0447  0839               	movf	___fldiv@new_exp+1,w
  3729  0448  3A80               	xorlw	128
  3730  0449  00FF               	movwf	btemp+1
  3731  044A  3080               	movlw	128
  3732  044B  027F               	subwf	btemp+1,w
  3733  044C  1D03               	skipz
  3734  044D  2C50               	goto	u1835
  3735  044E  30FF               	movlw	255
  3736  044F  0238               	subwf	___fldiv@new_exp,w
  3737  0450                     u1835:
  3738  0450  1C03               	skipc
  3739  0451  2C53               	goto	u1831
  3740  0452  2C54               	goto	u1830
  3741  0453                     u1831:
  3742  0453  2C62               	goto	l1419
  3743  0454                     u1830:
  3744  0454                     l1417:
  3745  0454  30FF               	movlw	255
  3746  0455  1283               	bcf	3,5	;RP0=0, select bank0
  3747  0456  1303               	bcf	3,6	;RP1=0, select bank0
  3748  0457  00B8               	movwf	___fldiv@new_exp
  3749  0458  3000               	movlw	0
  3750  0459  00B9               	movwf	___fldiv@new_exp+1
  3751  045A  3000               	movlw	0
  3752  045B  00AD               	movwf	___fldiv@b+3
  3753  045C  3000               	movlw	0
  3754  045D  00AC               	movwf	___fldiv@b+2
  3755  045E  3000               	movlw	0
  3756  045F  00AB               	movwf	___fldiv@b+1
  3757  0460  3000               	movlw	0
  3758  0461  00AA               	movwf	___fldiv@b
  3759  0462                     l1419:
  3760  0462  1283               	bcf	3,5	;RP0=0, select bank0
  3761  0463  1303               	bcf	3,6	;RP1=0, select bank0
  3762  0464  0839               	movf	___fldiv@new_exp+1,w
  3763  0465  3A80               	xorlw	128
  3764  0466  00FF               	movwf	btemp+1
  3765  0467  3080               	movlw	128
  3766  0468  027F               	subwf	btemp+1,w
  3767  0469  1D03               	skipz
  3768  046A  2C6D               	goto	u1845
  3769  046B  3001               	movlw	1
  3770  046C  0238               	subwf	___fldiv@new_exp,w
  3771  046D                     u1845:
  3772  046D  1803               	skipnc
  3773  046E  2C70               	goto	u1841
  3774  046F  2C71               	goto	u1840
  3775  0470                     u1841:
  3776  0470  2C7E               	goto	l498
  3777  0471                     u1840:
  3778  0471                     l1421:
  3779  0471  1283               	bcf	3,5	;RP0=0, select bank0
  3780  0472  1303               	bcf	3,6	;RP1=0, select bank0
  3781  0473  01B8               	clrf	___fldiv@new_exp
  3782  0474  01B9               	clrf	___fldiv@new_exp+1
  3783  0475                     l1423:
  3784  0475  3000               	movlw	0
  3785  0476  00AD               	movwf	___fldiv@b+3
  3786  0477  3000               	movlw	0
  3787  0478  00AC               	movwf	___fldiv@b+2
  3788  0479  3000               	movlw	0
  3789  047A  00AB               	movwf	___fldiv@b+1
  3790  047B  3000               	movlw	0
  3791  047C  00AA               	movwf	___fldiv@b
  3792  047D                     l1425:
  3793  047D  01B7               	clrf	___fldiv@sign
  3794  047E                     l498:
  3795  047E  1283               	bcf	3,5	;RP0=0, select bank0
  3796  047F  1303               	bcf	3,6	;RP1=0, select bank0
  3797  0480  0838               	movf	___fldiv@new_exp,w
  3798  0481  00AE               	movwf	??___fldiv
  3799  0482  082E               	movf	??___fldiv,w
  3800  0483  00BE               	movwf	___fldiv@bexp
  3801  0484                     l1427:
  3802  0484  1C3E               	btfss	___fldiv@bexp,0
  3803  0485  2C87               	goto	u1851
  3804  0486  2C88               	goto	u1850
  3805  0487                     u1851:
  3806  0487  2C8A               	goto	l1431
  3807  0488                     u1850:
  3808  0488                     l1429:
  3809  0488  17AC               	bsf	___fldiv@b+2,7
  3810  0489  2C8E               	goto	l500
  3811  048A                     l1431:
  3812  048A  307F               	movlw	127
  3813  048B  00AE               	movwf	??___fldiv
  3814  048C  082E               	movf	??___fldiv,w
  3815  048D  05AC               	andwf	___fldiv@b+2,f
  3816  048E                     l500:
  3817  048E  083E               	movf	___fldiv@bexp,w
  3818  048F  00AE               	movwf	??___fldiv
  3819  0490  1003               	clrc
  3820  0491  0C2E               	rrf	??___fldiv,w
  3821  0492  00AF               	movwf	??___fldiv+1
  3822  0493  082F               	movf	??___fldiv+1,w
  3823  0494  00AD               	movwf	___fldiv@b+3
  3824  0495  0837               	movf	___fldiv@sign,w
  3825  0496  00AE               	movwf	??___fldiv
  3826  0497  082E               	movf	??___fldiv,w
  3827  0498  04AD               	iorwf	___fldiv@b+3,f
  3828  0499  2B32               	goto	l1339
  3829  049A                     l478:
  3830  049A  0008               	return
  3831  049B                     __end_of___fldiv:
  3832  007E                     btemp	set	126	;btemp
  3833  007E                     wtemp0	set	126
  3834                           
  3835                           	psect	config
  3836                           
  3837                           ;Config register CONFIG1 @ 0x2007
  3838                           ;	Oscillator Selection bits
  3839                           ;	FOSC = HS, HS oscillator: High-speed crystal/resonator on RA6/OSC2/CLKOUT and RA7/OSC1
      +                          /CLKIN
  3840                           ;	Watchdog Timer Enable bit
  3841                           ;	WDTE = OFF, WDT disabled and can be enabled by SWDTEN bit of the WDTCON register
  3842                           ;	Power-up Timer Enable bit
  3843                           ;	PWRTE = OFF, PWRT disabled
  3844                           ;	RE3/MCLR pin function select bit
  3845                           ;	MCLRE = ON, RE3/MCLR pin function is MCLR
  3846                           ;	Code Protection bit
  3847                           ;	CP = OFF, Program memory code protection is disabled
  3848                           ;	Data Code Protection bit
  3849                           ;	CPD = OFF, Data memory code protection is disabled
  3850                           ;	Brown Out Reset Selection bits
  3851                           ;	BOREN = OFF, BOR disabled
  3852                           ;	Internal External Switchover bit
  3853                           ;	IESO = OFF, Internal/External Switchover mode is disabled
  3854                           ;	Fail-Safe Clock Monitor Enabled bit
  3855                           ;	FCMEN = OFF, Fail-Safe Clock Monitor is disabled
  3856                           ;	Low Voltage Programming Enable bit
  3857                           ;	LVP = OFF, RB3 pin has digital I/O, HV on MCLR must be used for programming
  3858                           ;	In-Circuit Debugger Mode bit
  3859                           ;	DEBUG = 0x1, unprogrammed default
  3860  2007                     	org	8199
  3861  2007  20F2               	dw	8434
  3862                           
  3863                           ;Config register CONFIG2 @ 0x2008
  3864                           ;	Brown-out Reset Selection bit
  3865                           ;	BOR4V = BOR40V, Brown-out Reset set to 4.0V
  3866                           ;	Flash Program Memory Self Write Enable bits
  3867                           ;	WRT = OFF, Write protection off
  3868  2008                     	org	8200
  3869  2008  3FFF               	dw	16383

Data Sizes:
    Strings     0
    Constant    20
    Data        0
    BSS         0
    Persistent  0
    Stack       0

Auto Spaces:
    Space          Size  Autos    Used
    COMMON           14     14      14
    BANK0            80     50      50
    BANK1            80      0       0
    BANK3            96      0       0
    BANK2            96      0       0

Pointer List with Targets:

    None.

Critical Paths under _main in COMMON

    _main->___flmul
    _main->___lwdiv
    _main->___xxtofl
    ___xxtofl->___wmul
    ___lwdiv->___lwmod
    ___fltol->___flmul
    ___flmul->__Umul8_16
    ___fldiv->___xxtofl

Critical Paths under _main in BANK0

    _main->___fldiv
    _main->___fltol
    ___fltol->___flmul
    ___fldiv->___xxtofl

Critical Paths under _main in BANK1

    None.

Critical Paths under _main in BANK3

    None.

Critical Paths under _main in BANK2

    None.

Call Graph Tables:

 ---------------------------------------------------------------------------------
 (Depth) Function   	        Calls       Base Space   Used Autos Params    Refs
 ---------------------------------------------------------------------------------
 (0) _main                                                24    24      0    7383
                                             32 BANK0     18    18      0
                            ___fldiv
                             ___flge
                            ___flmul
                            ___fltol
                            ___lwdiv
                            ___lwmod
                             ___wmul
                           ___xxtofl
 ---------------------------------------------------------------------------------
 (1) ___xxtofl                                            14    10      4     398
                                              6 COMMON     8     4      4
                                              0 BANK0      6     6      0
                             ___wmul (ARG)
 ---------------------------------------------------------------------------------
 (1) ___wmul                                               6     2      4     244
                                              0 COMMON     6     2      4
 ---------------------------------------------------------------------------------
 (1) ___lwmod                                              6     2      4    1071
                                              0 COMMON     6     2      4
 ---------------------------------------------------------------------------------
 (1) ___lwdiv                                              8     4      4     770
                                              6 COMMON     8     4      4
                            ___lwmod (ARG)
 ---------------------------------------------------------------------------------
 (1) ___fltol                                             11     7      4     381
                                             21 BANK0     11     7      4
                            ___flmul (ARG)
 ---------------------------------------------------------------------------------
 (1) ___flmul                                             26    18      8    2569
                                              9 COMMON     5     5      0
                                              0 BANK0     21    13      8
                          __Umul8_16
 ---------------------------------------------------------------------------------
 (2) __Umul8_16                                            9     7      2     799
                                              0 COMMON     9     7      2
 ---------------------------------------------------------------------------------
 (1) ___flge                                              12     4      8     334
                                              0 COMMON    12     4      8
 ---------------------------------------------------------------------------------
 (1) ___fldiv                                             26    18      8    1273
                                              6 BANK0     26    18      8
                             ___wmul (ARG)
                           ___xxtofl (ARG)
 ---------------------------------------------------------------------------------
 Estimated maximum stack depth 2
 ---------------------------------------------------------------------------------

 Call Graph Graphs:

 _main (ROOT)
   ___fldiv
     ___wmul (ARG)
     ___xxtofl (ARG)
       ___wmul (ARG)
   ___flge
   ___flmul
     __Umul8_16
   ___fltol
     ___flmul (ARG)
   ___lwdiv
     ___lwmod (ARG)
   ___lwmod
   ___wmul
   ___xxtofl

 Address spaces:
Name               Size   Autos  Total    Cost      Usage
BITCOMMON            E      0       0       0        0.0%
EEDATA             100      0       0       0        0.0%
NULL                 0      0       0       0        0.0%
CODE                 0      0       0       0        0.0%
COMMON               E      E       E       1      100.0%
BITSFR0              0      0       0       1        0.0%
SFR0                 0      0       0       1        0.0%
BITSFR1              0      0       0       2        0.0%
SFR1                 0      0       0       2        0.0%
STACK                0      0       0       2        0.0%
ABS                  0      0       0       3        0.0%
BITBANK0            50      0       0       4        0.0%
BITSFR3              0      0       0       4        0.0%
SFR3                 0      0       0       4        0.0%
BANK0               50     32      32       5       62.5%
BITSFR2              0      0       0       5        0.0%
SFR2                 0      0       0       5        0.0%
BITBANK1            50      0       0       6        0.0%
BANK1               50      0       0       7        0.0%
BITBANK3            60      0       0       8        0.0%
BANK3               60      0       0       9        0.0%
BITBANK2            60      0       0      10        0.0%
BANK2               60      0       0      11        0.0%
DATA                 0      0       0      12        0.0%


Microchip Technology PIC Macro Assembler V2.32 build 20210201212658 
Symbol Table                                                                                   Sun Jun 27 18:16:07 2021

           ___fldiv@aexp 003F             ___fldiv@bexp 003E                        pc 0002  
           ___fldiv@sign 0037                       l34 012D                       _GO 00F9  
                     fsr 0004      ___wmul@multiplicand 0072      __Umul8_16@word_mpld 0076  
                    l301 0F7A                      l127 0E68                      l304 0FE6  
                    l320 0F48                      l305 0FFF                      l313 0F5D  
                    l129 0E80                      l323 0F5D                      l500 048E  
                    l409 0EE1                      l522 0767                      l516 07FB  
                    l535 0E95                      l528 07EF                      l560 0077  
                    l537 0EA7                      l562 010E                      l492 040C  
                    l476 031A                      l573 00D8                      l478 049A  
                    l574 00E4                      l566 00BC                      l399 0052  
                    l498 047E                      fsr0 0004             ___flmul@aexp 002D  
           ___flmul@bexp 002E             ___flmul@sign 0028             ___flmul@temp 0033  
           ___flmul@prod 002F             ___fltol@exp1 003F                     l1201 0FBE  
                   l1203 0FC2                     l1211 0EE2                     l1301 02CF  
                   l1205 0FFC                     l1221 0F0E                     l1213 0EEF  
                   l1311 02E3                     l1303 02D0                     l1207 0FFE  
                   l1223 0F16                     l1401 0409                     l1321 02FC  
                   l1305 02D5                     l1313 02E5                     l1241 0F3D  
                   l1233 0F24                     l1225 0F18                     l1217 0EF8  
                   l1411 0428                     l1331 0310                     l1323 02FD  
                   l1315 02ED                     l1307 02DA                     l1171 0E9E  
                   l1163 0E82                     l1243 0F4D                     l1227 0F1C  
                   l1235 0F36                     l1219 0F0D                     l1251 0017  
                   l1421 0471                     l1413 0441                     l1405 0411  
                   l1325 0302                     l1333 0312                     l1317 02F2  
                   l1309 02E2                     l1173 0EA3                     l1165 0E84  
                   l1501 05F8                     l1245 0F52                     l1261 003A  
                   l1253 001A                     l1181 0E62                     l1431 048A  
                   l1423 0475                     l1407 0416                     l1415 0447  
                   l1351 035B                     l1335 0322                     l1343 033B  
                   l1327 0307                     l1319 02F8                     l1191 0F5E  
                   l1167 0E8B                     l1511 0688                     l1503 0608  
                   l1263 0040                     l1255 0021                     l1247 000F  
                   l1183 0E6F                     l1425 047D                     l1417 0454  
                   l1409 0424                     l1361 037A                     l1353 0363  
                   l1345 0340                     l1337 032E                     l1329 030F  
                   l1193 0F72                     l1169 0E8F                     l1521 071C  
                   l1513 0698                     l1505 0625                     l1441 04A8  
                   l1265 0041                     l1257 0025                     l1249 0011  
                   l1281 0EBC                     l1273 0EA8                     l1185 0E76  
                   l1177 0E5C                     l1601 00C3                     l1427 0484  
                   l1419 0462                     l1371 03AC                     l1363 038C  
                   l1355 036B                     l1339 0332                     l1195 0F8E  
                   l1531 0741                     l1523 072A                     l1515 06C5  
                   l1507 063E                     l1451 04BF                     l1443 04AC  
                   l1267 0048                     l1259 0029                     l1283 0EC0  
                   l1275 0EAE                     l1291 0EDD                     l1187 0E7C  
                   l1179 0E5E                     l1611 00FC                     l1603 00CE  
                   l1429 0488                     l1381 03CD                     l1373 03AD  
                   l1365 0390                     l1357 0373                     l1349 0349  
                   l1197 0F96                     l1541 0764                     l1525 0733  
                   l1533 0747                     l1517 06EB                     l1509 065B  
                   l1461 04D8                     l1453 04C1                     l1445 04AD  
                   l1437 049B                     l1269 004E                     l1285 0ECA  
                   l1277 0EB1                     l1613 0101                     l1605 00D2  
                   l1621 010F                     l1391 03E6                     l1383 03CF  
                   l1375 03BB                     l1367 0391                     l1359 0375  
                   l1295 02BE                     l1199 0F9A                     l1551 0783  
                   l1535 074B                     l1527 0737                     l1519 0713  
                   l1471 04ED                     l1463 04D9                     l1455 04C9  
                   l1447 04B2                     l1439 04A2                     l1287 0ED0  
                   l1279 0EB8                     l1615 0105                     l1607 00DC  
                   l1631 011D                     l1623 0113                     l1385 03D8  
                   l1393 03EC                     l1369 039A                     l1377 03BF  
                   l1297 02C5                     l1561 07C9                     l1553 079C  
                   l1545 076C                     l1537 074C                     l1529 0738  
                   l1481 0508                     l1473 04F5                     l1465 04DE  
                   l1457 04CE                     l1449 04B7                     l1289 0ED7  
                   l1617 0106                     l1609 00E6                     l1641 0127  
                   l1633 011E                     l1625 0114                     l1395 03F0  
                   l1387 03DC                     l1379 03C5                     l1299 02CB  
                   l1571 07E8                     l1563 07D3                     l1547 0771  
                   l1555 07A2                     l1539 0750                     l1491 058A  
                   l1483 0518                     l1475 04FA                     l1467 04E3  
                   l1459 04D4                     l1651 018E                     l1643 012A  
                   l1635 011F                     l1627 0117                     l1397 03F1  
                   l1389 03DD                     l1573 07F3                     l1565 07D5  
                   l1557 07AF                     l1549 077F                     l1493 05A6  
                   l1485 0525                     l1477 04FF                     l1469 04EB  
                   l1581 005F                     l1653 01BA                     l1661 0214  
                   l1645 0131                     l1637 0123                     l1629 011A  
                   l1399 03F5                     l1567 07E3                     l1559 07BA  
                   l1495 05C2                     l1487 0542                     l1591 008D  
                   l1583 006F                     l1663 0240                     l1671 0299  
                   l1655 01CD                     l1647 0131                     l1639 0127  
                   l1569 07E7                     l1497 05CB                     l1489 055E  
                   l1593 009A                     l1585 007F                     l1577 0056  
                   l1673 02A4                     l1665 0253                     l1657 01E0  
                   l1649 0175                     l1499 05DB                     l1595 00A1  
                   l1579 005B                     l1675 02AF                     l1667 0273  
                   l1659 01F3                     l1597 00A5                     l1589 0088  
                   l1669 0286                     l1599 00B3                     u1200 0E8F  
                   u1201 0E8E                     u2001 0617                     u2002 061E  
                   u2003 0625                     u1220 0EA3                     u1301 0FA9  
                   u1221 0EA2                     u2021 064D                     u1310 0FC2  
                   u1302 0FAA                     u2110 0737                     u2022 0654  
                   u1230 0E62                     u1311 0FC1                     u1303 0FAF  
                   u1215 0E96                     u2111 0736                     u2031 067A  
                   u2023 065B                     u2015 0627                     u1231 0E61  
                   u1304 0FB0                     u2200 07AF                     u2032 0681  
                   u1400 0F3C                     u1321 0FD1                     u1305 0FB5  
                   u2201 07AE                     u2105 072C                     u2041 06A7  
                   u2033 0688                     u1401 0F3B                     u1330 0FFC  
                   u1322 0FD2                     u1306 0FB6                     u2210 07C9  
                   u2130 074B                     u2050 06D1                     u2042 06AE  
                   u1331 0FFB                     u1323 0FD7                     u2211 07C8  
                   u2131 074A                     u2043 06B5                     u1324 0FD8  
                   u2220 07E7                     u2140 0750                     u1420 0F4D  
                   u1340 0EEF                     u1500 004E                     u1260 0E7C  
                   u1325 0FDD                     u2221 07E6                     u2205 07AB  
                   u2141 074F                     u2125 073A                     u2061 06DD  
                   u1421 0F4C                     u1341 0EEE                     u1501 004D  
                   u1261 0E7B                     u1245 0E69                     u1326 0FDE  
                   u1270 0F72                     u2150 0764                     u2070 06F9  
                   u2062 06E4                     u1430 0F52                     u1350 0F06  
                   u1510 0EAE                     u2310 00D2                     u2230 005B  
                   u1335 0FF8                     u1271 0F71                     u2215 07C5  
                   u2151 0763                     u2063 06EB                     u2055 06CC  
                   u1431 0F51                     u1415 0F3F                     u1511 0EAD  
                   u1255 0E70                     u2311 00D1                     u2231 005A  
                   u1600 02FC                     u1280 0F8E                     u2160 076B  
                   u1360 0F1C                     u1440 0017                     u2320 00D8  
                   u2240 005F                     u1601 02FB                     u1281 0F8D  
                   u2161 076A                     u2081 0705                     u1361 0F1B  
                   u1441 0016                     u2321 00D7                     u2305 00C7  
                   u2241 005E                     u1610 0302                     u1290 0F9A  
                   u2170 0771                     u2082 070C                     u1370 0F23  
                   u1530 0EC0                     u2330 00DC                     u2250 007F  
                   u1611 0301                     u1291 0F99                     u2171 0770  
                   u2083 0713                     u2075 06F4                     u1371 0F22  
                   u1355 0F01                     u1531 0EBF                     u2331 00DB  
                   u2251 007E                     u1700 03AC                     u1620 0307  
                   u2180 0783                     u1460 0029                     u1540 0ECA  
                   u2340 00F1                     u1701 03AB                     u1621 0306  
                   u2181 0782                     u1461 0028                     u1541 0EC9  
                   u1525 0EB2                     u1710 03C5                     u1630 0322  
                   u2190 0792                     u1390 0F35                     u2350 0101  
                   u2270 00A0                     u1711 03C4                     u1631 0321  
                   u2095 0715                     u1391 0F34                     u1455 001B  
                   u2351 0100                     u2271 009F                     u1800 0416  
                   u1720 03CD                     u1640 0340                     u1480 003A  
                   u1560 0EDD                     u2360 0105                     u1801 0415  
                   u1721 03CC                     u1705 03A8                     u1641 033F  
                   u1385 0F25                     u1481 0039                     u1561 0EDC  
                   u1545 0EC6                     u2361 0104                     u2345 00EC  
                   u2265 0092                     u1810 0428                     u1650 037A  
                   u1570 02CF                     u2290 00C2                     u2370 0131  
                   u1811 0427                     u1651 0379                     u1571 02CE  
                   u2195 078D                     u1475 002A                     u1555 0ED1  
                   u2291 00C1                     u2371 0130                     u1820 0437  
                   u1740 03DC                     u1580 02D5                     u1900 04DE  
                   u2380 018E                     u1741 03DB                     u1581 02D4  
                   u1901 04DD                     u1485 0036                     u2285 00B4  
                   u2381 018D                     u1830 0454                     u1590 02DA  
                   u1910 04E3                     u1831 0453                     u1735 03D1  
                   u1591 02D9                     u1911 04E2                     u1495 0042  
                   u1840 0471                     u1760 03F0                     u1680 0390  
                   u1920 04FA                     u1841 0470                     u1825 0432  
                   u1761 03EF                     u1681 038F                     u1665 037C  
                   u1921 04F9                     u1850 0488                     u1770 03F5  
                   u1930 04FF                     u1851 0487                     u1835 0450  
                   u1771 03F4                     u1755 03DF                     u1675 0385  
                   u1931 04FE                     u1780 0409                     u1860 04AC  
                   u1845 046D                     u1781 0408                     u1941 0550  
                   u1861 04AB                     u1790 0410                     u1942 0557  
                   u1870 04B2                     u1791 040F                     u1695 0393  
                   u1951 056C                     u1943 055E                     u1871 04B1  
                   u1952 0573                     u1880 04B7                     u1961 0598  
                   u1953 057A                     u1881 04B6                     u1962 059F  
                   u1890 04D8                     u1971 05B4                     u1963 05A6  
                   u1891 04D7                     u1972 05BB                     u1973 05C2  
                   u1991 05EA                     u1992 05F1                     u1993 05F8  
                   u1985 05C4                     _main 010F                     btemp 007E  
                   start 0000          ___fldiv@new_exp 0038            ___fltol@sign1 003E  
                  ?_main 0070          __end_of___fldiv 049B          __end_of___flmul 07FC  
        __end_of___fltol 0F5E                    _ANSEL 0188          __end_of___lwdiv 0053  
        __end_of___lwmod 0EE2                    _PORTB 0006                    _PORTC 0007  
                  _PORTD 0008                    _TRISB 0086                    _TRISC 0087  
                  _TRISD 0088                    pclath 000A                    status 0003  
        __end_ofmain@led 081A                    wtemp0 007E          __initialization 07FC  
           __end_of_main 02BE                   ??_main 0040                   _ADCON0 001F  
                 _ADCON1 009F                   _ANSELH 0189                   _TRISA0 0428  
       __end_of___xxtofl 010F                   ___flge 0F5E                   ___wmul 0E5C  
              ??___fldiv 002E                ??___flmul 0079                ??___fltol 0039  
              ??___lwdiv 007A                ??___lwmod 0074                   main@CH 0046  
                 main@DV 0048                   main@TR 0044       __size_of__Umul8_16 0027  
             ___flge@ff1 0070               ___flge@ff2 0074             ___xxtofl@arg 0022  
           ___xxtofl@exp 0021             ___xxtofl@val 0076  __end_of__initialization 07FC  
             ___fltol@f1 0035           __pcstackCOMMON 0070        __end_of__Umul8_16 0EA8  
             __pmaintext 010F                  ?___flge 0070                  ?___wmul 0070  
              ?___xxtofl 0076               __stringtab 0800          __size_of___flge 00A2  
                ___fldiv 02BE                  ___flmul 049B                  ___fltol 0EE2  
        __size_of___wmul 0025                  ___lwdiv 000F                  ___lwmod 0EA8  
                __ptext1 0053                  __ptext2 0E5C                  __ptext3 0EA8  
                __ptext4 000F                  __ptext5 0EE2                  __ptext6 049B  
                __ptext7 0E81                  __ptext8 0F5E                  __ptext9 02BE  
             ??___xxtofl 007A                  main@led 0806     end_of_initialization 07FC  
          ___xxtofl@sign 0020              ___fldiv@grs 003A              ___fldiv@rem 0033  
            ___flmul@grs 0029           __end_of___flge 1000           __end_of___wmul 0E81  
    start_initialization 07FC                 ??___flge 0078                 ??___wmul 0074  
              __Umul8_16 0E81                ___fldiv@a 0026                ___fldiv@b 002A  
              ___flmul@a 0024                ___flmul@b 0020                ___latbits 0002  
          __pcstackBANK0 0020        __size_of___xxtofl 00BC         ___lwdiv@dividend 0078  
               ?___fldiv 0026                 ?___flmul 0020                 ?___fltol 0035  
             ?__Umul8_16 0070                 ?___lwdiv 0076                 ?___lwmod 0070  
              __pstrings 0800         ___lwdiv@quotient 007B           ___wmul@product 0074  
            __stringbase 0805        ___wmul@multiplier 0070              ??__Umul8_16 0072  
       __size_of___fldiv 01DD         __size_of___flmul 0361         __size_of___fltol 007C  
       __size_of___lwdiv 0044         __size_of___lwmod 003A       __end_of__stringtab 0806  
               ___xxtofl 0053                 _main$653 004A          ___lwdiv@divisor 0076  
        ___lwdiv@counter 007D            __size_of_main 01AF                 main@Vout 004C  
               main@temp 0050         ___lwmod@dividend 0072                stringcode 0800  
 __Umul8_16@multiplicand 0070          ___lwmod@divisor 0070          ___lwmod@counter 0075  
               stringdir 0800                 stringtab 0800     __Umul8_16@multiplier 0078  
      __Umul8_16@product 0074  
